
print.m:     file format elf64-littleriscv


Disassembly of section .text:

00000000000100b0 <main>:
   100b0:	6571                	c.lui	a0,0x1c
   100b2:	1141                	c.addi	sp,-16
   100b4:	14050513          	addi	a0,a0,320 # 1c140 <__clzdi2+0x2e>
   100b8:	e406                	c.sdsp	ra,8(sp)
   100ba:	200000ef          	jal	ra,102ba <printf>
   100be:	60a2                	c.ldsp	ra,8(sp)
   100c0:	4501                	c.li	a0,0
   100c2:	0141                	c.addi	sp,16
   100c4:	8082                	c.jr	ra

00000000000100c6 <register_fini>:
   100c6:	00000793          	addi	a5,zero,0
   100ca:	c791                	c.beqz	a5,100d6 <register_fini+0x10>
   100cc:	6549                	c.lui	a0,0x12
   100ce:	52e50513          	addi	a0,a0,1326 # 1252e <__libc_fini_array>
   100d2:	00c0206f          	jal	zero,120de <atexit>
   100d6:	8082                	c.jr	ra

00000000000100d8 <_start>:
   100d8:	0000e197          	auipc	gp,0xe
   100dc:	93018193          	addi	gp,gp,-1744 # 1da08 <__global_pointer$>
   100e0:	77018513          	addi	a0,gp,1904 # 1e178 <__malloc_max_total_mem>
   100e4:	0000e617          	auipc	a2,0xe
   100e8:	12460613          	addi	a2,a2,292 # 1e208 <__BSS_END__>
   100ec:	8e09                	c.sub	a2,a0
   100ee:	4581                	c.li	a1,0
   100f0:	0fe000ef          	jal	ra,101ee <memset>
   100f4:	00002517          	auipc	a0,0x2
   100f8:	fea50513          	addi	a0,a0,-22 # 120de <atexit>
   100fc:	c519                	c.beqz	a0,1010a <_start+0x32>
   100fe:	00002517          	auipc	a0,0x2
   10102:	43050513          	addi	a0,a0,1072 # 1252e <__libc_fini_array>
   10106:	7d9010ef          	jal	ra,120de <atexit>
   1010a:	07a000ef          	jal	ra,10184 <__libc_init_array>
   1010e:	4502                	c.lwsp	a0,0(sp)
   10110:	002c                	c.addi4spn	a1,sp,8
   10112:	4601                	c.li	a2,0
   10114:	f9dff0ef          	jal	ra,100b0 <main>
   10118:	a0b9                	c.j	10166 <exit>

000000000001011a <__do_global_dtors_aux>:
   1011a:	7981c703          	lbu	a4,1944(gp) # 1e1a0 <completed.5527>
   1011e:	e715                	c.bnez	a4,1014a <__do_global_dtors_aux+0x30>
   10120:	1141                	c.addi	sp,-16
   10122:	e022                	c.sdsp	s0,0(sp)
   10124:	843e                	c.mv	s0,a5
   10126:	e406                	c.sdsp	ra,8(sp)
   10128:	00000793          	addi	a5,zero,0
   1012c:	cb81                	c.beqz	a5,1013c <__do_global_dtors_aux+0x22>
   1012e:	6575                	c.lui	a0,0x1d
   10130:	00050513          	addi	a0,a0,0 # 1d000 <__FRAME_END__>
   10134:	00000097          	auipc	ra,0x0
   10138:	000000e7          	jalr	ra,0(zero) # 0 <main-0x100b0>
   1013c:	4785                	c.li	a5,1
   1013e:	60a2                	c.ldsp	ra,8(sp)
   10140:	78f18c23          	sb	a5,1944(gp) # 1e1a0 <completed.5527>
   10144:	6402                	c.ldsp	s0,0(sp)
   10146:	0141                	c.addi	sp,16
   10148:	8082                	c.jr	ra
   1014a:	8082                	c.jr	ra

000000000001014c <frame_dummy>:
   1014c:	00000793          	addi	a5,zero,0
   10150:	cb91                	c.beqz	a5,10164 <frame_dummy+0x18>
   10152:	6575                	c.lui	a0,0x1d
   10154:	7a018593          	addi	a1,gp,1952 # 1e1a8 <object.5532>
   10158:	00050513          	addi	a0,a0,0 # 1d000 <__FRAME_END__>
   1015c:	00000317          	auipc	t1,0x0
   10160:	00000067          	jalr	zero,0(zero) # 0 <main-0x100b0>
   10164:	8082                	c.jr	ra

0000000000010166 <exit>:
   10166:	1141                	c.addi	sp,-16
   10168:	4581                	c.li	a1,0
   1016a:	e022                	c.sdsp	s0,0(sp)
   1016c:	e406                	c.sdsp	ra,8(sp)
   1016e:	842a                	c.mv	s0,a0
   10170:	6ad010ef          	jal	ra,1201c <__call_exitprocs>
   10174:	7481b503          	ld	a0,1864(gp) # 1e150 <_global_impure_ptr>
   10178:	6d3c                	c.ld	a5,88(a0)
   1017a:	c391                	c.beqz	a5,1017e <exit+0x18>
   1017c:	9782                	c.jalr	a5
   1017e:	8522                	c.mv	a0,s0
   10180:	1930a0ef          	jal	ra,1ab12 <_exit>

0000000000010184 <__libc_init_array>:
   10184:	1101                	c.addi	sp,-32
   10186:	e822                	c.sdsp	s0,16(sp)
   10188:	e04a                	c.sdsp	s2,0(sp)
   1018a:	6475                	c.lui	s0,0x1d
   1018c:	6975                	c.lui	s2,0x1d
   1018e:	00440793          	addi	a5,s0,4 # 1d004 <__preinit_array_end>
   10192:	00490913          	addi	s2,s2,4 # 1d004 <__preinit_array_end>
   10196:	40f90933          	sub	s2,s2,a5
   1019a:	ec06                	c.sdsp	ra,24(sp)
   1019c:	e426                	c.sdsp	s1,8(sp)
   1019e:	40395913          	srai	s2,s2,0x3
   101a2:	00090b63          	beq	s2,zero,101b8 <__libc_init_array+0x34>
   101a6:	00440413          	addi	s0,s0,4
   101aa:	4481                	c.li	s1,0
   101ac:	601c                	c.ld	a5,0(s0)
   101ae:	0485                	c.addi	s1,1
   101b0:	0421                	c.addi	s0,8
   101b2:	9782                	c.jalr	a5
   101b4:	fe991ce3          	bne	s2,s1,101ac <__libc_init_array+0x28>
   101b8:	6475                	c.lui	s0,0x1d
   101ba:	6975                	c.lui	s2,0x1d
   101bc:	00840793          	addi	a5,s0,8 # 1d008 <__init_array_start>
   101c0:	01890913          	addi	s2,s2,24 # 1d018 <__do_global_dtors_aux_fini_array_entry>
   101c4:	40f90933          	sub	s2,s2,a5
   101c8:	40395913          	srai	s2,s2,0x3
   101cc:	00090b63          	beq	s2,zero,101e2 <__libc_init_array+0x5e>
   101d0:	00840413          	addi	s0,s0,8
   101d4:	4481                	c.li	s1,0
   101d6:	601c                	c.ld	a5,0(s0)
   101d8:	0485                	c.addi	s1,1
   101da:	0421                	c.addi	s0,8
   101dc:	9782                	c.jalr	a5
   101de:	fe991ce3          	bne	s2,s1,101d6 <__libc_init_array+0x52>
   101e2:	60e2                	c.ldsp	ra,24(sp)
   101e4:	6442                	c.ldsp	s0,16(sp)
   101e6:	64a2                	c.ldsp	s1,8(sp)
   101e8:	6902                	c.ldsp	s2,0(sp)
   101ea:	6105                	c.addi16sp	sp,32
   101ec:	8082                	c.jr	ra

00000000000101ee <memset>:
   101ee:	433d                	c.li	t1,15
   101f0:	872a                	c.mv	a4,a0
   101f2:	02c37163          	bgeu	t1,a2,10214 <memset+0x26>
   101f6:	00f77793          	andi	a5,a4,15
   101fa:	e3c1                	c.bnez	a5,1027a <memset+0x8c>
   101fc:	e1bd                	c.bnez	a1,10262 <memset+0x74>
   101fe:	ff067693          	andi	a3,a2,-16
   10202:	8a3d                	c.andi	a2,15
   10204:	96ba                	c.add	a3,a4
   10206:	e30c                	c.sd	a1,0(a4)
   10208:	e70c                	c.sd	a1,8(a4)
   1020a:	0741                	c.addi	a4,16
   1020c:	fed76de3          	bltu	a4,a3,10206 <memset+0x18>
   10210:	e211                	c.bnez	a2,10214 <memset+0x26>
   10212:	8082                	c.jr	ra
   10214:	40c306b3          	sub	a3,t1,a2
   10218:	068a                	c.slli	a3,0x2
   1021a:	00000297          	auipc	t0,0x0
   1021e:	9696                	c.add	a3,t0
   10220:	00a68067          	jalr	zero,10(a3)
   10224:	00b70723          	sb	a1,14(a4)
   10228:	00b706a3          	sb	a1,13(a4)
   1022c:	00b70623          	sb	a1,12(a4)
   10230:	00b705a3          	sb	a1,11(a4)
   10234:	00b70523          	sb	a1,10(a4)
   10238:	00b704a3          	sb	a1,9(a4)
   1023c:	00b70423          	sb	a1,8(a4)
   10240:	00b703a3          	sb	a1,7(a4)
   10244:	00b70323          	sb	a1,6(a4)
   10248:	00b702a3          	sb	a1,5(a4)
   1024c:	00b70223          	sb	a1,4(a4)
   10250:	00b701a3          	sb	a1,3(a4)
   10254:	00b70123          	sb	a1,2(a4)
   10258:	00b700a3          	sb	a1,1(a4)
   1025c:	00b70023          	sb	a1,0(a4)
   10260:	8082                	c.jr	ra
   10262:	0ff5f593          	andi	a1,a1,255
   10266:	00859693          	slli	a3,a1,0x8
   1026a:	8dd5                	c.or	a1,a3
   1026c:	01059693          	slli	a3,a1,0x10
   10270:	8dd5                	c.or	a1,a3
   10272:	02059693          	slli	a3,a1,0x20
   10276:	8dd5                	c.or	a1,a3
   10278:	b759                	c.j	101fe <memset+0x10>
   1027a:	00279693          	slli	a3,a5,0x2
   1027e:	00000297          	auipc	t0,0x0
   10282:	9696                	c.add	a3,t0
   10284:	8286                	c.mv	t0,ra
   10286:	fa2680e7          	jalr	ra,-94(a3)
   1028a:	8096                	c.mv	ra,t0
   1028c:	17c1                	c.addi	a5,-16
   1028e:	8f1d                	c.sub	a4,a5
   10290:	963e                	c.add	a2,a5
   10292:	f8c371e3          	bgeu	t1,a2,10214 <memset+0x26>
   10296:	b79d                	c.j	101fc <memset+0xe>

0000000000010298 <_printf_r>:
   10298:	715d                	c.addi16sp	sp,-80
   1029a:	f032                	c.sdsp	a2,32(sp)
   1029c:	f436                	c.sdsp	a3,40(sp)
   1029e:	f83a                	c.sdsp	a4,48(sp)
   102a0:	fc3e                	c.sdsp	a5,56(sp)
   102a2:	e0c2                	c.sdsp	a6,64(sp)
   102a4:	e4c6                	c.sdsp	a7,72(sp)
   102a6:	862e                	c.mv	a2,a1
   102a8:	690c                	c.ld	a1,16(a0)
   102aa:	1014                	c.addi4spn	a3,sp,32
   102ac:	ec06                	c.sdsp	ra,24(sp)
   102ae:	e436                	c.sdsp	a3,8(sp)
   102b0:	036000ef          	jal	ra,102e6 <_vfprintf_r>
   102b4:	60e2                	c.ldsp	ra,24(sp)
   102b6:	6161                	c.addi16sp	sp,80
   102b8:	8082                	c.jr	ra

00000000000102ba <printf>:
   102ba:	7581b303          	ld	t1,1880(gp) # 1e160 <_impure_ptr>
   102be:	711d                	c.addi16sp	sp,-96
   102c0:	f832                	c.sdsp	a2,48(sp)
   102c2:	fc36                	c.sdsp	a3,56(sp)
   102c4:	f42e                	c.sdsp	a1,40(sp)
   102c6:	e0ba                	c.sdsp	a4,64(sp)
   102c8:	e4be                	c.sdsp	a5,72(sp)
   102ca:	e8c2                	c.sdsp	a6,80(sp)
   102cc:	ecc6                	c.sdsp	a7,88(sp)
   102ce:	01033583          	ld	a1,16(t1) # 1016c <exit+0x6>
   102d2:	1034                	c.addi4spn	a3,sp,40
   102d4:	862a                	c.mv	a2,a0
   102d6:	851a                	c.mv	a0,t1
   102d8:	ec06                	c.sdsp	ra,24(sp)
   102da:	e436                	c.sdsp	a3,8(sp)
   102dc:	00a000ef          	jal	ra,102e6 <_vfprintf_r>
   102e0:	60e2                	c.ldsp	ra,24(sp)
   102e2:	6125                	c.addi16sp	sp,96
   102e4:	8082                	c.jr	ra

00000000000102e6 <_vfprintf_r>:
   102e6:	d8010113          	addi	sp,sp,-640
   102ea:	26113c23          	sd	ra,632(sp)
   102ee:	25313c23          	sd	s3,600(sp)
   102f2:	25413823          	sd	s4,592(sp)
   102f6:	23a13023          	sd	s10,544(sp)
   102fa:	89ae                	c.mv	s3,a1
   102fc:	8d32                	c.mv	s10,a2
   102fe:	e836                	c.sdsp	a3,16(sp)
   10300:	26813823          	sd	s0,624(sp)
   10304:	26913423          	sd	s1,616(sp)
   10308:	27213023          	sd	s2,608(sp)
   1030c:	25513423          	sd	s5,584(sp)
   10310:	25613023          	sd	s6,576(sp)
   10314:	23713c23          	sd	s7,568(sp)
   10318:	23813823          	sd	s8,560(sp)
   1031c:	23913423          	sd	s9,552(sp)
   10320:	21b13c23          	sd	s11,536(sp)
   10324:	8a2a                	c.mv	s4,a0
   10326:	6d6040ef          	jal	ra,149fc <_localeconv_r>
   1032a:	611c                	c.ld	a5,0(a0)
   1032c:	853e                	c.mv	a0,a5
   1032e:	f8be                	c.sdsp	a5,112(sp)
   10330:	5a5050ef          	jal	ra,160d4 <strlen>
   10334:	f4aa                	c.sdsp	a0,104(sp)
   10336:	e202                	c.sdsp	zero,256(sp)
   10338:	e602                	c.sdsp	zero,264(sp)
   1033a:	000a0663          	beq	s4,zero,10346 <_vfprintf_r+0x60>
   1033e:	050a2783          	lw	a5,80(s4)
   10342:	6e078763          	beq	a5,zero,10a30 <_vfprintf_r+0x74a>
   10346:	01099703          	lh	a4,16(s3)
   1034a:	03071793          	slli	a5,a4,0x30
   1034e:	03271693          	slli	a3,a4,0x32
   10352:	93c1                	c.srli	a5,0x30
   10354:	0206c363          	blt	a3,zero,1037a <_vfprintf_r+0x94>
   10358:	6789                	c.lui	a5,0x2
   1035a:	0ac9a683          	lw	a3,172(s3)
   1035e:	8fd9                	c.or	a5,a4
   10360:	0107979b          	slliw	a5,a5,0x10
   10364:	7779                	c.lui	a4,0xffffe
   10366:	4107d79b          	sraiw	a5,a5,0x10
   1036a:	177d                	c.addi	a4,-1
   1036c:	8f75                	c.and	a4,a3
   1036e:	00f99823          	sh	a5,16(s3)
   10372:	17c2                	c.slli	a5,0x30
   10374:	0ae9a623          	sw	a4,172(s3)
   10378:	93c1                	c.srli	a5,0x30
   1037a:	0087f713          	andi	a4,a5,8
   1037e:	26070963          	beq	a4,zero,105f0 <_vfprintf_r+0x30a>
   10382:	0189b703          	ld	a4,24(s3)
   10386:	26070563          	beq	a4,zero,105f0 <_vfprintf_r+0x30a>
   1038a:	8be9                	c.andi	a5,26
   1038c:	4729                	c.li	a4,10
   1038e:	26e78e63          	beq	a5,a4,1060a <_vfprintf_r+0x324>
   10392:	67f1                	c.lui	a5,0x1c
   10394:	3687b783          	ld	a5,872(a5) # 1c368 <zeroes.4521+0x38>
   10398:	19010b13          	addi	s6,sp,400
   1039c:	ea5a                	c.sdsp	s6,272(sp)
   1039e:	f13e                	c.sdsp	a5,160(sp)
   103a0:	67f1                	c.lui	a5,0x1c
   103a2:	3487b783          	ld	a5,840(a5) # 1c348 <zeroes.4521+0x18>
   103a6:	f202                	c.sdsp	zero,288(sp)
   103a8:	10012c23          	sw	zero,280(sp)
   103ac:	e93e                	c.sdsp	a5,144(sp)
   103ae:	67f1                	c.lui	a5,0x1c
   103b0:	3587b783          	ld	a5,856(a5) # 1c358 <zeroes.4521+0x28>
   103b4:	f002                	c.sdsp	zero,32(sp)
   103b6:	f402                	c.sdsp	zero,40(sp)
   103b8:	ed3e                	c.sdsp	a5,152(sp)
   103ba:	000d4783          	lbu	a5,0(s10)
   103be:	fc82                	c.sdsp	zero,120(sp)
   103c0:	f082                	c.sdsp	zero,96(sp)
   103c2:	e102                	c.sdsp	zero,128(sp)
   103c4:	e502                	c.sdsp	zero,136(sp)
   103c6:	e402                	c.sdsp	zero,8(sp)
   103c8:	835a                	c.mv	t1,s6
   103ca:	1c078463          	beq	a5,zero,10592 <_vfprintf_r+0x2ac>
   103ce:	846a                	c.mv	s0,s10
   103d0:	02500713          	addi	a4,zero,37
   103d4:	30e78263          	beq	a5,a4,106d8 <_vfprintf_r+0x3f2>
   103d8:	00144783          	lbu	a5,1(s0)
   103dc:	0405                	c.addi	s0,1
   103de:	fbfd                	c.bnez	a5,103d4 <_vfprintf_r+0xee>
   103e0:	41a404bb          	subw	s1,s0,s10
   103e4:	1a048763          	beq	s1,zero,10592 <_vfprintf_r+0x2ac>
   103e8:	7712                	c.ldsp	a4,288(sp)
   103ea:	11812783          	lw	a5,280(sp)
   103ee:	01a33023          	sd	s10,0(t1)
   103f2:	9726                	c.add	a4,s1
   103f4:	2785                	c.addiw	a5,1
   103f6:	00933423          	sd	s1,8(t1)
   103fa:	f23a                	c.sdsp	a4,288(sp)
   103fc:	10f12c23          	sw	a5,280(sp)
   10400:	0007871b          	addiw	a4,a5,0
   10404:	479d                	c.li	a5,7
   10406:	0341                	c.addi	t1,16
   10408:	2ce7cf63          	blt	a5,a4,106e6 <_vfprintf_r+0x400>
   1040c:	6722                	c.ldsp	a4,8(sp)
   1040e:	00044783          	lbu	a5,0(s0)
   10412:	9f25                	c.addw	a4,s1
   10414:	e43a                	c.sdsp	a4,8(sp)
   10416:	16078e63          	beq	a5,zero,10592 <_vfprintf_r+0x2ac>
   1041a:	67f1                	c.lui	a5,0x1c
   1041c:	00144e83          	lbu	t4,1(s0)
   10420:	0c010fa3          	sb	zero,223(sp)
   10424:	0405                	c.addi	s0,1
   10426:	5c7d                	c.li	s8,-1
   10428:	4a81                	c.li	s5,0
   1042a:	4481                	c.li	s1,0
   1042c:	05a00913          	addi	s2,zero,90
   10430:	1b078b93          	addi	s7,a5,432 # 1c1b0 <__clzdi2+0x9e>
   10434:	4da5                	c.li	s11,9
   10436:	0405                	c.addi	s0,1
   10438:	000e8c9b          	addiw	s9,t4,0
   1043c:	02a00693          	addi	a3,zero,42
   10440:	fe0c879b          	addiw	a5,s9,-32
   10444:	0007871b          	addiw	a4,a5,0
   10448:	04e96163          	bltu	s2,a4,1048a <_vfprintf_r+0x1a4>
   1044c:	1782                	c.slli	a5,0x20
   1044e:	83f9                	c.srli	a5,0x1e
   10450:	97de                	c.add	a5,s7
   10452:	439c                	c.lw	a5,0(a5)
   10454:	8782                	c.jr	a5
   10456:	4a81                	c.li	s5,0
   10458:	00044703          	lbu	a4,0(s0)
   1045c:	002a979b          	slliw	a5,s5,0x2
   10460:	01578abb          	addw	s5,a5,s5
   10464:	fd0c8e9b          	addiw	t4,s9,-48
   10468:	001a9a9b          	slliw	s5,s5,0x1
   1046c:	fd07079b          	addiw	a5,a4,-48
   10470:	0405                	c.addi	s0,1
   10472:	015e8abb          	addw	s5,t4,s5
   10476:	00070c9b          	addiw	s9,a4,0
   1047a:	fcfdffe3          	bgeu	s11,a5,10458 <_vfprintf_r+0x172>
   1047e:	fe0c879b          	addiw	a5,s9,-32
   10482:	0007871b          	addiw	a4,a5,0
   10486:	fce973e3          	bgeu	s2,a4,1044c <_vfprintf_r+0x166>
   1048a:	100c8463          	beq	s9,zero,10592 <_vfprintf_r+0x2ac>
   1048e:	13910423          	sb	s9,296(sp)
   10492:	0c010fa3          	sb	zero,223(sp)
   10496:	4905                	c.li	s2,1
   10498:	4b85                	c.li	s7,1
   1049a:	12810d13          	addi	s10,sp,296
   1049e:	ec02                	c.sdsp	zero,24(sp)
   104a0:	4c01                	c.li	s8,0
   104a2:	e482                	c.sdsp	zero,72(sp)
   104a4:	ec82                	c.sdsp	zero,88(sp)
   104a6:	e882                	c.sdsp	zero,80(sp)
   104a8:	0024f793          	andi	a5,s1,2
   104ac:	0007829b          	addiw	t0,a5,0
   104b0:	c391                	c.beqz	a5,104b4 <_vfprintf_r+0x1ce>
   104b2:	2909                	c.addiw	s2,2
   104b4:	0844fd93          	andi	s11,s1,132
   104b8:	7792                	c.ldsp	a5,288(sp)
   104ba:	000d9663          	bne	s11,zero,104c6 <_vfprintf_r+0x1e0>
   104be:	412a86bb          	subw	a3,s5,s2
   104c2:	2ad045e3          	blt	zero,a3,10f6c <_vfprintf_r+0xc86>
   104c6:	0df14703          	lbu	a4,223(sp)
   104ca:	c70d                	c.beqz	a4,104f4 <_vfprintf_r+0x20e>
   104cc:	11812703          	lw	a4,280(sp)
   104d0:	0df10693          	addi	a3,sp,223
   104d4:	00d33023          	sd	a3,0(t1)
   104d8:	2705                	c.addiw	a4,1
   104da:	4685                	c.li	a3,1
   104dc:	0785                	c.addi	a5,1
   104de:	00d33423          	sd	a3,8(t1)
   104e2:	10e12c23          	sw	a4,280(sp)
   104e6:	0007069b          	addiw	a3,a4,0
   104ea:	f23e                	c.sdsp	a5,288(sp)
   104ec:	471d                	c.li	a4,7
   104ee:	0341                	c.addi	t1,16
   104f0:	40d74b63          	blt	a4,a3,10906 <_vfprintf_r+0x620>
   104f4:	02028563          	beq	t0,zero,1051e <_vfprintf_r+0x238>
   104f8:	11812703          	lw	a4,280(sp)
   104fc:	1194                	c.addi4spn	a3,sp,224
   104fe:	00d33023          	sd	a3,0(t1)
   10502:	2705                	c.addiw	a4,1
   10504:	4689                	c.li	a3,2
   10506:	0789                	c.addi	a5,2
   10508:	00d33423          	sd	a3,8(t1)
   1050c:	10e12c23          	sw	a4,280(sp)
   10510:	0007069b          	addiw	a3,a4,0
   10514:	f23e                	c.sdsp	a5,288(sp)
   10516:	471d                	c.li	a4,7
   10518:	0341                	c.addi	t1,16
   1051a:	2ed745e3          	blt	a4,a3,11004 <_vfprintf_r+0xd1e>
   1051e:	08000713          	addi	a4,zero,128
   10522:	02ed8ae3          	beq	s11,a4,10d56 <_vfprintf_r+0xa70>
   10526:	417c0c3b          	subw	s8,s8,s7
   1052a:	0b804ee3          	blt	zero,s8,10de6 <_vfprintf_r+0xb00>
   1052e:	1004f713          	andi	a4,s1,256
   10532:	74071a63          	bne	a4,zero,10c86 <_vfprintf_r+0x9a0>
   10536:	11812703          	lw	a4,280(sp)
   1053a:	97de                	c.add	a5,s7
   1053c:	01a33023          	sd	s10,0(t1)
   10540:	0017069b          	addiw	a3,a4,1
   10544:	8736                	c.mv	a4,a3
   10546:	01733423          	sd	s7,8(t1)
   1054a:	10e12c23          	sw	a4,280(sp)
   1054e:	f23e                	c.sdsp	a5,288(sp)
   10550:	471d                	c.li	a4,7
   10552:	42d74763          	blt	a4,a3,10980 <_vfprintf_r+0x69a>
   10556:	0341                	c.addi	t1,16
   10558:	8891                	c.andi	s1,4
   1055a:	c489                	c.beqz	s1,10564 <_vfprintf_r+0x27e>
   1055c:	412a84bb          	subw	s1,s5,s2
   10560:	2a904de3          	blt	zero,s1,1101a <_vfprintf_r+0xd34>
   10564:	8756                	c.mv	a4,s5
   10566:	012ad363          	bge	s5,s2,1056c <_vfprintf_r+0x286>
   1056a:	874a                	c.mv	a4,s2
   1056c:	66a2                	c.ldsp	a3,8(sp)
   1056e:	9f35                	c.addw	a4,a3
   10570:	e43a                	c.sdsp	a4,8(sp)
   10572:	0e079be3          	bne	a5,zero,10e68 <_vfprintf_r+0xb82>
   10576:	67e2                	c.ldsp	a5,24(sp)
   10578:	10012c23          	sw	zero,280(sp)
   1057c:	c789                	c.beqz	a5,10586 <_vfprintf_r+0x2a0>
   1057e:	65e2                	c.ldsp	a1,24(sp)
   10580:	8552                	c.mv	a0,s4
   10582:	0b0020ef          	jal	ra,12632 <_free_r>
   10586:	835a                	c.mv	t1,s6
   10588:	8d22                	c.mv	s10,s0
   1058a:	000d4783          	lbu	a5,0(s10)
   1058e:	e40790e3          	bne	a5,zero,103ce <_vfprintf_r+0xe8>
   10592:	7792                	c.ldsp	a5,288(sp)
   10594:	c399                	c.beqz	a5,1059a <_vfprintf_r+0x2b4>
   10596:	2a60106f          	jal	zero,1183c <_vfprintf_r+0x1556>
   1059a:	0109d783          	lhu	a5,16(s3)
   1059e:	0407f793          	andi	a5,a5,64
   105a2:	c399                	c.beqz	a5,105a8 <_vfprintf_r+0x2c2>
   105a4:	64a0106f          	jal	zero,11bee <_vfprintf_r+0x1908>
   105a8:	27813083          	ld	ra,632(sp)
   105ac:	27013403          	ld	s0,624(sp)
   105b0:	6522                	c.ldsp	a0,8(sp)
   105b2:	26813483          	ld	s1,616(sp)
   105b6:	26013903          	ld	s2,608(sp)
   105ba:	25813983          	ld	s3,600(sp)
   105be:	25013a03          	ld	s4,592(sp)
   105c2:	24813a83          	ld	s5,584(sp)
   105c6:	24013b03          	ld	s6,576(sp)
   105ca:	23813b83          	ld	s7,568(sp)
   105ce:	23013c03          	ld	s8,560(sp)
   105d2:	22813c83          	ld	s9,552(sp)
   105d6:	22013d03          	ld	s10,544(sp)
   105da:	21813d83          	ld	s11,536(sp)
   105de:	28010113          	addi	sp,sp,640
   105e2:	8082                	c.jr	ra
   105e4:	0104e493          	ori	s1,s1,16
   105e8:	00044e83          	lbu	t4,0(s0)
   105ec:	2481                	c.addiw	s1,0
   105ee:	b5a1                	c.j	10436 <_vfprintf_r+0x150>
   105f0:	85ce                	c.mv	a1,s3
   105f2:	8552                	c.mv	a0,s4
   105f4:	13b010ef          	jal	ra,11f2e <__swsetup_r>
   105f8:	c119                	c.beqz	a0,105fe <_vfprintf_r+0x318>
   105fa:	5f40106f          	jal	zero,11bee <_vfprintf_r+0x1908>
   105fe:	0109d783          	lhu	a5,16(s3)
   10602:	4729                	c.li	a4,10
   10604:	8be9                	c.andi	a5,26
   10606:	d8e796e3          	bne	a5,a4,10392 <_vfprintf_r+0xac>
   1060a:	01299783          	lh	a5,18(s3)
   1060e:	d807c2e3          	blt	a5,zero,10392 <_vfprintf_r+0xac>
   10612:	66c2                	c.ldsp	a3,16(sp)
   10614:	866a                	c.mv	a2,s10
   10616:	85ce                	c.mv	a1,s3
   10618:	8552                	c.mv	a0,s4
   1061a:	081010ef          	jal	ra,11e9a <__sbprintf>
   1061e:	e42a                	c.sdsp	a0,8(sp)
   10620:	b761                	c.j	105a8 <_vfprintf_r+0x2c2>
   10622:	0104e493          	ori	s1,s1,16
   10626:	2481                	c.addiw	s1,0
   10628:	66c2                	c.ldsp	a3,16(sp)
   1062a:	0204f793          	andi	a5,s1,32
   1062e:	00868713          	addi	a4,a3,8
   10632:	38078063          	beq	a5,zero,109b2 <_vfprintf_r+0x6cc>
   10636:	629c                	c.ld	a5,0(a3)
   10638:	893e                	c.mv	s2,a5
   1063a:	3807ca63          	blt	a5,zero,109ce <_vfprintf_r+0x6e8>
   1063e:	57fd                	c.li	a5,-1
   10640:	46fc03e3          	beq	s8,a5,112a6 <_vfprintf_r+0xfc0>
   10644:	f7f4f493          	andi	s1,s1,-129
   10648:	e83a                	c.sdsp	a4,16(sp)
   1064a:	00048d9b          	addiw	s11,s1,0
   1064e:	100912e3          	bne	s2,zero,10f52 <_vfprintf_r+0xc6c>
   10652:	100c13e3          	bne	s8,zero,10f58 <_vfprintf_r+0xc72>
   10656:	84ee                	c.mv	s1,s11
   10658:	4c01                	c.li	s8,0
   1065a:	4b81                	c.li	s7,0
   1065c:	18c10d13          	addi	s10,sp,396
   10660:	000b891b          	addiw	s2,s7,0
   10664:	018bd463          	bge	s7,s8,1066c <_vfprintf_r+0x386>
   10668:	000c091b          	addiw	s2,s8,0
   1066c:	0df14783          	lbu	a5,223(sp)
   10670:	ec02                	c.sdsp	zero,24(sp)
   10672:	e482                	c.sdsp	zero,72(sp)
   10674:	ec82                	c.sdsp	zero,88(sp)
   10676:	e882                	c.sdsp	zero,80(sp)
   10678:	e20788e3          	beq	a5,zero,104a8 <_vfprintf_r+0x1c2>
   1067c:	2905                	c.addiw	s2,1
   1067e:	b52d                	c.j	104a8 <_vfprintf_r+0x1c2>
   10680:	0104e493          	ori	s1,s1,16
   10684:	2481                	c.addiw	s1,0
   10686:	66c2                	c.ldsp	a3,16(sp)
   10688:	0204f793          	andi	a5,s1,32
   1068c:	00868713          	addi	a4,a3,8
   10690:	30078263          	beq	a5,zero,10994 <_vfprintf_r+0x6ae>
   10694:	0006b903          	ld	s2,0(a3)
   10698:	bff4f493          	andi	s1,s1,-1025
   1069c:	00048d9b          	addiw	s11,s1,0
   106a0:	e83a                	c.sdsp	a4,16(sp)
   106a2:	4781                	c.li	a5,0
   106a4:	0c010fa3          	sb	zero,223(sp)
   106a8:	577d                	c.li	a4,-1
   106aa:	32ec0e63          	beq	s8,a4,109e6 <_vfprintf_r+0x700>
   106ae:	f7fdf493          	andi	s1,s11,-129
   106b2:	2481                	c.addiw	s1,0
   106b4:	08091be3          	bne	s2,zero,10f4a <_vfprintf_r+0xc64>
   106b8:	580c1a63          	bne	s8,zero,10c4c <_vfprintf_r+0x966>
   106bc:	ffd1                	c.bnez	a5,10658 <_vfprintf_r+0x372>
   106be:	001dfb93          	andi	s7,s11,1
   106c2:	18c10d13          	addi	s10,sp,396
   106c6:	f80b8de3          	beq	s7,zero,10660 <_vfprintf_r+0x37a>
   106ca:	03000793          	addi	a5,zero,48
   106ce:	18f105a3          	sb	a5,395(sp)
   106d2:	18b10d13          	addi	s10,sp,395
   106d6:	b769                	c.j	10660 <_vfprintf_r+0x37a>
   106d8:	41a404bb          	subw	s1,s0,s10
   106dc:	d00496e3          	bne	s1,zero,103e8 <_vfprintf_r+0x102>
   106e0:	00044783          	lbu	a5,0(s0)
   106e4:	bb0d                	c.j	10416 <_vfprintf_r+0x130>
   106e6:	0a10                	c.addi4spn	a2,sp,272
   106e8:	85ce                	c.mv	a1,s3
   106ea:	8552                	c.mv	a0,s4
   106ec:	6ee070ef          	jal	ra,17dda <__sprint_r>
   106f0:	ea0515e3          	bne	a0,zero,1059a <_vfprintf_r+0x2b4>
   106f4:	835a                	c.mv	t1,s6
   106f6:	bb19                	c.j	1040c <_vfprintf_r+0x126>
   106f8:	0084f793          	andi	a5,s1,8
   106fc:	38079ae3          	bne	a5,zero,11290 <_vfprintf_r+0xfaa>
   10700:	67c2                	c.ldsp	a5,16(sp)
   10702:	ec1a                	c.sdsp	t1,24(sp)
   10704:	2388                	c.fld	fa0,0(a5)
   10706:	07a1                	c.addi	a5,8
   10708:	e83e                	c.sdsp	a5,16(sp)
   1070a:	7180b0ef          	jal	ra,1be22 <__extenddftf2>
   1070e:	6362                	c.ldsp	t1,24(sp)
   10710:	e22a                	c.sdsp	a0,256(sp)
   10712:	e62e                	c.sdsp	a1,264(sp)
   10714:	0208                	c.addi4spn	a0,sp,256
   10716:	ec1a                	c.sdsp	t1,24(sp)
   10718:	2a8040ef          	jal	ra,149c0 <_ldcheck>
   1071c:	d5aa                	c.swsp	a0,232(sp)
   1071e:	4789                	c.li	a5,2
   10720:	6362                	c.ldsp	t1,24(sp)
   10722:	62f500e3          	beq	a0,a5,11542 <_vfprintf_r+0x125c>
   10726:	4785                	c.li	a5,1
   10728:	6cf50ae3          	beq	a0,a5,115fc <_vfprintf_r+0x1316>
   1072c:	06100793          	addi	a5,zero,97
   10730:	00fc9463          	bne	s9,a5,10738 <_vfprintf_r+0x452>
   10734:	55a0106f          	jal	zero,11c8e <_vfprintf_r+0x19a8>
   10738:	04100793          	addi	a5,zero,65
   1073c:	00fc9463          	bne	s9,a5,10744 <_vfprintf_r+0x45e>
   10740:	10a0106f          	jal	zero,1184a <_vfprintf_r+0x1564>
   10744:	fdfcf713          	andi	a4,s9,-33
   10748:	57fd                	c.li	a5,-1
   1074a:	ecba                	c.sdsp	a4,88(sp)
   1074c:	00fc1463          	bne	s8,a5,10754 <_vfprintf_r+0x46e>
   10750:	5600106f          	jal	zero,11cb0 <_vfprintf_r+0x19ca>
   10754:	04700793          	addi	a5,zero,71
   10758:	00f71463          	bne	a4,a5,10760 <_vfprintf_r+0x47a>
   1075c:	5620106f          	jal	zero,11cbe <_vfprintf_r+0x19d8>
   10760:	6bb2                	c.ldsp	s7,264(sp)
   10762:	1004e793          	ori	a5,s1,256
   10766:	f526                	c.sdsp	s1,168(sp)
   10768:	6d92                	c.ldsp	s11,256(sp)
   1076a:	2781                	c.addiw	a5,0
   1076c:	000bd463          	bge	s7,zero,10774 <_vfprintf_r+0x48e>
   10770:	58a0106f          	jal	zero,11cfa <_vfprintf_r+0x1a14>
   10774:	e582                	c.sdsp	zero,200(sp)
   10776:	84be                	c.mv	s1,a5
   10778:	ec02                	c.sdsp	zero,24(sp)
   1077a:	2701                	c.addiw	a4,0
   1077c:	04600793          	addi	a5,zero,70
   10780:	00f71463          	bne	a4,a5,10788 <_vfprintf_r+0x4a2>
   10784:	3320106f          	jal	zero,11ab6 <_vfprintf_r+0x17d0>
   10788:	6766                	c.ldsp	a4,88(sp)
   1078a:	04500793          	addi	a5,zero,69
   1078e:	f01a                	c.sdsp	t1,32(sp)
   10790:	00f70463          	beq	a4,a5,10798 <_vfprintf_r+0x4b2>
   10794:	2e80106f          	jal	zero,11a7c <_vfprintf_r+0x1796>
   10798:	001c091b          	addiw	s2,s8,1
   1079c:	874a                	c.mv	a4,s2
   1079e:	0f810893          	addi	a7,sp,248
   107a2:	0ec10813          	addi	a6,sp,236
   107a6:	11bc                	c.addi4spn	a5,sp,232
   107a8:	4689                	c.li	a3,2
   107aa:	85ee                	c.mv	a1,s11
   107ac:	865e                	c.mv	a2,s7
   107ae:	8552                	c.mv	a0,s4
   107b0:	3d6030ef          	jal	ra,13b86 <_ldtoa_r>
   107b4:	7302                	c.ldsp	t1,32(sp)
   107b6:	8d2a                	c.mv	s10,a0
   107b8:	992a                	c.add	s2,a0
   107ba:	4681                	c.li	a3,0
   107bc:	4601                	c.li	a2,0
   107be:	856e                	c.mv	a0,s11
   107c0:	85de                	c.mv	a1,s7
   107c2:	f01a                	c.sdsp	t1,32(sp)
   107c4:	55c0a0ef          	jal	ra,1ad20 <__eqtf2>
   107c8:	7302                	c.ldsp	t1,32(sp)
   107ca:	86ca                	c.mv	a3,s2
   107cc:	cd11                	c.beqz	a0,107e8 <_vfprintf_r+0x502>
   107ce:	76ee                	c.ldsp	a3,248(sp)
   107d0:	0126fc63          	bgeu	a3,s2,107e8 <_vfprintf_r+0x502>
   107d4:	03000713          	addi	a4,zero,48
   107d8:	00168793          	addi	a5,a3,1
   107dc:	fdbe                	c.sdsp	a5,248(sp)
   107de:	00e68023          	sb	a4,0(a3)
   107e2:	76ee                	c.ldsp	a3,248(sp)
   107e4:	ff26eae3          	bltu	a3,s2,107d8 <_vfprintf_r+0x4f2>
   107e8:	41a687bb          	subw	a5,a3,s10
   107ec:	f03e                	c.sdsp	a5,32(sp)
   107ee:	572e                	c.lwsp	a4,232(sp)
   107f0:	04700793          	addi	a5,zero,71
   107f4:	e8ba                	c.sdsp	a4,80(sp)
   107f6:	6766                	c.ldsp	a4,88(sp)
   107f8:	00f71463          	bne	a4,a5,10800 <_vfprintf_r+0x51a>
   107fc:	1c60106f          	jal	zero,119c2 <_vfprintf_r+0x16dc>
   10800:	6766                	c.ldsp	a4,88(sp)
   10802:	04600793          	addi	a5,zero,70
   10806:	00f71463          	bne	a4,a5,1080e <_vfprintf_r+0x528>
   1080a:	3760106f          	jal	zero,11b80 <_vfprintf_r+0x189a>
   1080e:	67c6                	c.ldsp	a5,80(sp)
   10810:	65e6                	c.ldsp	a1,88(sp)
   10812:	04100613          	addi	a2,zero,65
   10816:	37fd                	c.addiw	a5,-1
   10818:	d5be                	c.swsp	a5,232(sp)
   1081a:	0ffcf713          	andi	a4,s9,255
   1081e:	4681                	c.li	a3,0
   10820:	00c59663          	bne	a1,a2,1082c <_vfprintf_r+0x546>
   10824:	273d                	c.addiw	a4,15
   10826:	0ff77713          	andi	a4,a4,255
   1082a:	4685                	c.li	a3,1
   1082c:	0ee10823          	sb	a4,240(sp)
   10830:	02b00713          	addi	a4,zero,43
   10834:	0007d763          	bge	a5,zero,10842 <_vfprintf_r+0x55c>
   10838:	6746                	c.ldsp	a4,80(sp)
   1083a:	4785                	c.li	a5,1
   1083c:	9f99                	c.subw	a5,a4
   1083e:	02d00713          	addi	a4,zero,45
   10842:	0ee108a3          	sb	a4,241(sp)
   10846:	4725                	c.li	a4,9
   10848:	00f74463          	blt	a4,a5,10850 <_vfprintf_r+0x56a>
   1084c:	56a0106f          	jal	zero,11db6 <_vfprintf_r+0x1ad0>
   10850:	0ff10513          	addi	a0,sp,255
   10854:	85aa                	c.mv	a1,a0
   10856:	46a9                	c.li	a3,10
   10858:	06300e13          	addi	t3,zero,99
   1085c:	02d7e73b          	remw	a4,a5,a3
   10860:	862e                	c.mv	a2,a1
   10862:	88be                	c.mv	a7,a5
   10864:	15fd                	c.addi	a1,-1
   10866:	0307071b          	addiw	a4,a4,48
   1086a:	fee60fa3          	sb	a4,-1(a2)
   1086e:	02d7c7bb          	divw	a5,a5,a3
   10872:	ff1e45e3          	blt	t3,a7,1085c <_vfprintf_r+0x576>
   10876:	0307879b          	addiw	a5,a5,48
   1087a:	0ff7f693          	andi	a3,a5,255
   1087e:	fed58fa3          	sb	a3,-1(a1)
   10882:	ffe60793          	addi	a5,a2,-2
   10886:	00a7e463          	bltu	a5,a0,1088e <_vfprintf_r+0x5a8>
   1088a:	5f80106f          	jal	zero,11e82 <_vfprintf_r+0x1b9c>
   1088e:	0f210713          	addi	a4,sp,242
   10892:	a019                	c.j	10898 <_vfprintf_r+0x5b2>
   10894:	0007c683          	lbu	a3,0(a5)
   10898:	00d70023          	sb	a3,0(a4) # ffffffffffffe000 <__BSS_END__+0xfffffffffffdfdf8>
   1089c:	0785                	c.addi	a5,1
   1089e:	0705                	c.addi	a4,1
   108a0:	fea79ae3          	bne	a5,a0,10894 <_vfprintf_r+0x5ae>
   108a4:	10110793          	addi	a5,sp,257
   108a8:	0f210713          	addi	a4,sp,242
   108ac:	8f91                	c.sub	a5,a2
   108ae:	97ba                	c.add	a5,a4
   108b0:	1998                	c.addi4spn	a4,sp,240
   108b2:	9f99                	c.subw	a5,a4
   108b4:	fcbe                	c.sdsp	a5,120(sp)
   108b6:	77e6                	c.ldsp	a5,120(sp)
   108b8:	7682                	c.ldsp	a3,32(sp)
   108ba:	4705                	c.li	a4,1
   108bc:	00f68bbb          	addw	s7,a3,a5
   108c0:	87de                	c.mv	a5,s7
   108c2:	00d74463          	blt	a4,a3,108ca <_vfprintf_r+0x5e4>
   108c6:	52a0106f          	jal	zero,11df0 <_vfprintf_r+0x1b0a>
   108ca:	7726                	c.ldsp	a4,104(sp)
   108cc:	00e78bbb          	addw	s7,a5,a4
   108d0:	77aa                	c.ldsp	a5,168(sp)
   108d2:	fffbc913          	xori	s2,s7,-1
   108d6:	43f95913          	srai	s2,s2,0x3f
   108da:	bff7f493          	andi	s1,a5,-1025
   108de:	2481                	c.addiw	s1,0
   108e0:	012bf933          	and	s2,s7,s2
   108e4:	1004e493          	ori	s1,s1,256
   108e8:	2901                	c.addiw	s2,0
   108ea:	e482                	c.sdsp	zero,72(sp)
   108ec:	ec82                	c.sdsp	zero,88(sp)
   108ee:	e882                	c.sdsp	zero,80(sp)
   108f0:	67ae                	c.ldsp	a5,200(sp)
   108f2:	e399                	c.bnez	a5,108f8 <_vfprintf_r+0x612>
   108f4:	1240106f          	jal	zero,11a18 <_vfprintf_r+0x1732>
   108f8:	02d00793          	addi	a5,zero,45
   108fc:	0cf10fa3          	sb	a5,223(sp)
   10900:	4c01                	c.li	s8,0
   10902:	2905                	c.addiw	s2,1
   10904:	b655                	c.j	104a8 <_vfprintf_r+0x1c2>
   10906:	0a10                	c.addi4spn	a2,sp,272
   10908:	85ce                	c.mv	a1,s3
   1090a:	8552                	c.mv	a0,s4
   1090c:	f816                	c.sdsp	t0,48(sp)
   1090e:	4cc070ef          	jal	ra,17dda <__sprint_r>
   10912:	56051263          	bne	a0,zero,10e76 <_vfprintf_r+0xb90>
   10916:	7792                	c.ldsp	a5,288(sp)
   10918:	72c2                	c.ldsp	t0,48(sp)
   1091a:	835a                	c.mv	t1,s6
   1091c:	bee1                	c.j	104f4 <_vfprintf_r+0x20e>
   1091e:	7746                	c.ldsp	a4,112(sp)
   10920:	76a6                	c.ldsp	a3,104(sp)
   10922:	0341                	c.addi	t1,16
   10924:	fee33823          	sd	a4,-16(t1)
   10928:	11812703          	lw	a4,280(sp)
   1092c:	97b6                	c.add	a5,a3
   1092e:	fed33c23          	sd	a3,-8(t1)
   10932:	2705                	c.addiw	a4,1
   10934:	0007069b          	addiw	a3,a4,0
   10938:	10e12c23          	sw	a4,280(sp)
   1093c:	f23e                	c.sdsp	a5,288(sp)
   1093e:	471d                	c.li	a4,7
   10940:	00d75e63          	bge	a4,a3,1095c <_vfprintf_r+0x676>
   10944:	0a10                	c.addi4spn	a2,sp,272
   10946:	85ce                	c.mv	a1,s3
   10948:	8552                	c.mv	a0,s4
   1094a:	490070ef          	jal	ra,17dda <__sprint_r>
   1094e:	52051463          	bne	a0,zero,10e76 <_vfprintf_r+0xb90>
   10952:	562e                	c.lwsp	a2,232(sp)
   10954:	7792                	c.ldsp	a5,288(sp)
   10956:	11812683          	lw	a3,280(sp)
   1095a:	835a                	c.mv	t1,s6
   1095c:	00065463          	bge	a2,zero,10964 <_vfprintf_r+0x67e>
   10960:	2420106f          	jal	zero,11ba2 <_vfprintf_r+0x18bc>
   10964:	7702                	c.ldsp	a4,32(sp)
   10966:	0016861b          	addiw	a2,a3,1
   1096a:	01a33023          	sd	s10,0(t1)
   1096e:	97ba                	c.add	a5,a4
   10970:	00e33423          	sd	a4,8(t1)
   10974:	f23e                	c.sdsp	a5,288(sp)
   10976:	10c12c23          	sw	a2,280(sp)
   1097a:	471d                	c.li	a4,7
   1097c:	bcc75de3          	bge	a4,a2,10556 <_vfprintf_r+0x270>
   10980:	0a10                	c.addi4spn	a2,sp,272
   10982:	85ce                	c.mv	a1,s3
   10984:	8552                	c.mv	a0,s4
   10986:	454070ef          	jal	ra,17dda <__sprint_r>
   1098a:	4e051663          	bne	a0,zero,10e76 <_vfprintf_r+0xb90>
   1098e:	7792                	c.ldsp	a5,288(sp)
   10990:	835a                	c.mv	t1,s6
   10992:	b6d9                	c.j	10558 <_vfprintf_r+0x272>
   10994:	0104f793          	andi	a5,s1,16
   10998:	0e0797e3          	bne	a5,zero,11286 <_vfprintf_r+0xfa0>
   1099c:	66c2                	c.ldsp	a3,16(sp)
   1099e:	0404f793          	andi	a5,s1,64
   109a2:	0006a903          	lw	s2,0(a3)
   109a6:	440783e3          	beq	a5,zero,115ec <_vfprintf_r+0x1306>
   109aa:	1942                	c.slli	s2,0x30
   109ac:	03095913          	srli	s2,s2,0x30
   109b0:	b1e5                	c.j	10698 <_vfprintf_r+0x3b2>
   109b2:	0104f793          	andi	a5,s1,16
   109b6:	0c0793e3          	bne	a5,zero,1127c <_vfprintf_r+0xf96>
   109ba:	0404f793          	andi	a5,s1,64
   109be:	400786e3          	beq	a5,zero,115ca <_vfprintf_r+0x12e4>
   109c2:	67c2                	c.ldsp	a5,16(sp)
   109c4:	00079903          	lh	s2,0(a5)
   109c8:	87ca                	c.mv	a5,s2
   109ca:	c607dae3          	bge	a5,zero,1063e <_vfprintf_r+0x358>
   109ce:	02d00793          	addi	a5,zero,45
   109d2:	0cf10fa3          	sb	a5,223(sp)
   109d6:	e83a                	c.sdsp	a4,16(sp)
   109d8:	577d                	c.li	a4,-1
   109da:	41200933          	sub	s2,zero,s2
   109de:	8da6                	c.mv	s11,s1
   109e0:	4785                	c.li	a5,1
   109e2:	ccec16e3          	bne	s8,a4,106ae <_vfprintf_r+0x3c8>
   109e6:	4705                	c.li	a4,1
   109e8:	56e78563          	beq	a5,a4,10f52 <_vfprintf_r+0xc6c>
   109ec:	4709                	c.li	a4,2
   109ee:	26e78863          	beq	a5,a4,10c5e <_vfprintf_r+0x978>
   109f2:	18c10b93          	addi	s7,sp,396
   109f6:	8d5e                	c.mv	s10,s7
   109f8:	00797793          	andi	a5,s2,7
   109fc:	03078793          	addi	a5,a5,48
   10a00:	fefd0fa3          	sb	a5,-1(s10)
   10a04:	00395913          	srli	s2,s2,0x3
   10a08:	876a                	c.mv	a4,s10
   10a0a:	1d7d                	c.addi	s10,-1
   10a0c:	fe0916e3          	bne	s2,zero,109f8 <_vfprintf_r+0x712>
   10a10:	001df693          	andi	a3,s11,1
   10a14:	26068563          	beq	a3,zero,10c7e <_vfprintf_r+0x998>
   10a18:	03000693          	addi	a3,zero,48
   10a1c:	26d78163          	beq	a5,a3,10c7e <_vfprintf_r+0x998>
   10a20:	1779                	c.addi	a4,-2
   10a22:	fedd0fa3          	sb	a3,-1(s10)
   10a26:	40eb8bbb          	subw	s7,s7,a4
   10a2a:	84ee                	c.mv	s1,s11
   10a2c:	8d3a                	c.mv	s10,a4
   10a2e:	b90d                	c.j	10660 <_vfprintf_r+0x37a>
   10a30:	8552                	c.mv	a0,s4
   10a32:	2d5010ef          	jal	ra,12506 <__sinit>
   10a36:	ba01                	c.j	10346 <_vfprintf_r+0x60>
   10a38:	67c2                	c.ldsp	a5,16(sp)
   10a3a:	0c010fa3          	sb	zero,223(sp)
   10a3e:	0007bd03          	ld	s10,0(a5)
   10a42:	00878d93          	addi	s11,a5,8
   10a46:	1a0d0de3          	beq	s10,zero,11400 <_vfprintf_r+0x111a>
   10a4a:	57fd                	c.li	a5,-1
   10a4c:	32fc0be3          	beq	s8,a5,11582 <_vfprintf_r+0x129c>
   10a50:	8662                	c.mv	a2,s8
   10a52:	4581                	c.li	a1,0
   10a54:	856a                	c.mv	a0,s10
   10a56:	e81a                	c.sdsp	t1,16(sp)
   10a58:	706040ef          	jal	ra,1515e <memchr>
   10a5c:	ec2a                	c.sdsp	a0,24(sp)
   10a5e:	6342                	c.ldsp	t1,16(sp)
   10a60:	e119                	c.bnez	a0,10a66 <_vfprintf_r+0x780>
   10a62:	0b80106f          	jal	zero,11b1a <_vfprintf_r+0x1834>
   10a66:	67e2                	c.ldsp	a5,24(sp)
   10a68:	e86e                	c.sdsp	s11,16(sp)
   10a6a:	ec02                	c.sdsp	zero,24(sp)
   10a6c:	41a78bbb          	subw	s7,a5,s10
   10a70:	fffbc913          	xori	s2,s7,-1
   10a74:	0df14783          	lbu	a5,223(sp)
   10a78:	43f95913          	srai	s2,s2,0x3f
   10a7c:	012bf933          	and	s2,s7,s2
   10a80:	e482                	c.sdsp	zero,72(sp)
   10a82:	ec82                	c.sdsp	zero,88(sp)
   10a84:	e882                	c.sdsp	zero,80(sp)
   10a86:	2901                	c.addiw	s2,0
   10a88:	4c01                	c.li	s8,0
   10a8a:	be0799e3          	bne	a5,zero,1067c <_vfprintf_r+0x396>
   10a8e:	bc29                	c.j	104a8 <_vfprintf_r+0x1c2>
   10a90:	6742                	c.ldsp	a4,16(sp)
   10a92:	0c010fa3          	sb	zero,223(sp)
   10a96:	4905                	c.li	s2,1
   10a98:	431c                	c.lw	a5,0(a4)
   10a9a:	0721                	c.addi	a4,8
   10a9c:	e83a                	c.sdsp	a4,16(sp)
   10a9e:	12f10423          	sb	a5,296(sp)
   10aa2:	4b85                	c.li	s7,1
   10aa4:	12810d13          	addi	s10,sp,296
   10aa8:	badd                	c.j	1049e <_vfprintf_r+0x1b8>
   10aaa:	00044e83          	lbu	t4,0(s0)
   10aae:	0044e493          	ori	s1,s1,4
   10ab2:	2481                	c.addiw	s1,0
   10ab4:	b249                	c.j	10436 <_vfprintf_r+0x150>
   10ab6:	02b00793          	addi	a5,zero,43
   10aba:	00044e83          	lbu	t4,0(s0)
   10abe:	0cf10fa3          	sb	a5,223(sp)
   10ac2:	ba95                	c.j	10436 <_vfprintf_r+0x150>
   10ac4:	0804e493          	ori	s1,s1,128
   10ac8:	00044e83          	lbu	t4,0(s0)
   10acc:	2481                	c.addiw	s1,0
   10ace:	b2a5                	c.j	10436 <_vfprintf_r+0x150>
   10ad0:	00044c83          	lbu	s9,0(s0)
   10ad4:	00140793          	addi	a5,s0,1
   10ad8:	00dc9463          	bne	s9,a3,10ae0 <_vfprintf_r+0x7fa>
   10adc:	3780106f          	jal	zero,11e54 <_vfprintf_r+0x1b6e>
   10ae0:	fd0c871b          	addiw	a4,s9,-48
   10ae4:	843e                	c.mv	s0,a5
   10ae6:	4c01                	c.li	s8,0
   10ae8:	94edece3          	bltu	s11,a4,10440 <_vfprintf_r+0x15a>
   10aec:	00044c83          	lbu	s9,0(s0)
   10af0:	002c179b          	slliw	a5,s8,0x2
   10af4:	01878e3b          	addw	t3,a5,s8
   10af8:	001e1e1b          	slliw	t3,t3,0x1
   10afc:	00ee0c3b          	addw	s8,t3,a4
   10b00:	fd0c871b          	addiw	a4,s9,-48
   10b04:	0405                	c.addi	s0,1
   10b06:	feedf3e3          	bgeu	s11,a4,10aec <_vfprintf_r+0x806>
   10b0a:	ba1d                	c.j	10440 <_vfprintf_r+0x15a>
   10b0c:	67c2                	c.ldsp	a5,16(sp)
   10b0e:	00044e83          	lbu	t4,0(s0)
   10b12:	0007aa83          	lw	s5,0(a5)
   10b16:	07a1                	c.addi	a5,8
   10b18:	e83e                	c.sdsp	a5,16(sp)
   10b1a:	900adee3          	bge	s5,zero,10436 <_vfprintf_r+0x150>
   10b1e:	41500abb          	subw	s5,zero,s5
   10b22:	b771                	c.j	10aae <_vfprintf_r+0x7c8>
   10b24:	8552                	c.mv	a0,s4
   10b26:	ec1a                	c.sdsp	t1,24(sp)
   10b28:	6d5030ef          	jal	ra,149fc <_localeconv_r>
   10b2c:	651c                	c.ld	a5,8(a0)
   10b2e:	853e                	c.mv	a0,a5
   10b30:	e53e                	c.sdsp	a5,136(sp)
   10b32:	5a2050ef          	jal	ra,160d4 <strlen>
   10b36:	87aa                	c.mv	a5,a0
   10b38:	8552                	c.mv	a0,s4
   10b3a:	8cbe                	c.mv	s9,a5
   10b3c:	e13e                	c.sdsp	a5,128(sp)
   10b3e:	6bf030ef          	jal	ra,149fc <_localeconv_r>
   10b42:	691c                	c.ld	a5,16(a0)
   10b44:	6362                	c.ldsp	t1,24(sp)
   10b46:	00044e83          	lbu	t4,0(s0)
   10b4a:	f0be                	c.sdsp	a5,96(sp)
   10b4c:	8e0c85e3          	beq	s9,zero,10436 <_vfprintf_r+0x150>
   10b50:	8e0783e3          	beq	a5,zero,10436 <_vfprintf_r+0x150>
   10b54:	0007c783          	lbu	a5,0(a5)
   10b58:	8c078fe3          	beq	a5,zero,10436 <_vfprintf_r+0x150>
   10b5c:	4004e493          	ori	s1,s1,1024
   10b60:	2481                	c.addiw	s1,0
   10b62:	b8d1                	c.j	10436 <_vfprintf_r+0x150>
   10b64:	0014e493          	ori	s1,s1,1
   10b68:	00044e83          	lbu	t4,0(s0)
   10b6c:	2481                	c.addiw	s1,0
   10b6e:	b0e1                	c.j	10436 <_vfprintf_r+0x150>
   10b70:	0df14783          	lbu	a5,223(sp)
   10b74:	00044e83          	lbu	t4,0(s0)
   10b78:	8a079fe3          	bne	a5,zero,10436 <_vfprintf_r+0x150>
   10b7c:	02000793          	addi	a5,zero,32
   10b80:	0cf10fa3          	sb	a5,223(sp)
   10b84:	b84d                	c.j	10436 <_vfprintf_r+0x150>
   10b86:	0084e493          	ori	s1,s1,8
   10b8a:	00044e83          	lbu	t4,0(s0)
   10b8e:	2481                	c.addiw	s1,0
   10b90:	b05d                	c.j	10436 <_vfprintf_r+0x150>
   10b92:	0104e493          	ori	s1,s1,16
   10b96:	00048d9b          	addiw	s11,s1,0
   10b9a:	66c2                	c.ldsp	a3,16(sp)
   10b9c:	020df793          	andi	a5,s11,32
   10ba0:	00868713          	addi	a4,a3,8
   10ba4:	68078a63          	beq	a5,zero,11238 <_vfprintf_r+0xf52>
   10ba8:	0006b903          	ld	s2,0(a3)
   10bac:	4785                	c.li	a5,1
   10bae:	e83a                	c.sdsp	a4,16(sp)
   10bb0:	bcd5                	c.j	106a4 <_vfprintf_r+0x3be>
   10bb2:	0204e493          	ori	s1,s1,32
   10bb6:	00044e83          	lbu	t4,0(s0)
   10bba:	2481                	c.addiw	s1,0
   10bbc:	b8ad                	c.j	10436 <_vfprintf_r+0x150>
   10bbe:	6742                	c.ldsp	a4,16(sp)
   10bc0:	77e1                	c.lui	a5,0xffff8
   10bc2:	8307c793          	xori	a5,a5,-2000
   10bc6:	0ef11023          	sh	a5,224(sp)
   10bca:	00870793          	addi	a5,a4,8
   10bce:	e83e                	c.sdsp	a5,16(sp)
   10bd0:	67f1                	c.lui	a5,0x1c
   10bd2:	18878793          	addi	a5,a5,392 # 1c188 <__clzdi2+0x76>
   10bd6:	0024e493          	ori	s1,s1,2
   10bda:	f43e                	c.sdsp	a5,40(sp)
   10bdc:	00073903          	ld	s2,0(a4)
   10be0:	00048d9b          	addiw	s11,s1,0
   10be4:	4789                	c.li	a5,2
   10be6:	07800c93          	addi	s9,zero,120
   10bea:	bc6d                	c.j	106a4 <_vfprintf_r+0x3be>
   10bec:	66c2                	c.ldsp	a3,16(sp)
   10bee:	0204f793          	andi	a5,s1,32
   10bf2:	6298                	c.ld	a4,0(a3)
   10bf4:	06a1                	c.addi	a3,8
   10bf6:	e836                	c.sdsp	a3,16(sp)
   10bf8:	66079663          	bne	a5,zero,11264 <_vfprintf_r+0xf7e>
   10bfc:	0104f793          	andi	a5,s1,16
   10c00:	66079263          	bne	a5,zero,11264 <_vfprintf_r+0xf7e>
   10c04:	0404f793          	andi	a5,s1,64
   10c08:	3e0799e3          	bne	a5,zero,117fa <_vfprintf_r+0x1514>
   10c0c:	2004f493          	andi	s1,s1,512
   10c10:	67a2                	c.ldsp	a5,8(sp)
   10c12:	e099                	c.bnez	s1,10c18 <_vfprintf_r+0x932>
   10c14:	0a20106f          	jal	zero,11cb6 <_vfprintf_r+0x19d0>
   10c18:	00f70023          	sb	a5,0(a4)
   10c1c:	8d22                	c.mv	s10,s0
   10c1e:	b2b5                	c.j	1058a <_vfprintf_r+0x2a4>
   10c20:	00044e83          	lbu	t4,0(s0)
   10c24:	06c00793          	addi	a5,zero,108
   10c28:	7afe8563          	beq	t4,a5,113d2 <_vfprintf_r+0x10ec>
   10c2c:	0104e493          	ori	s1,s1,16
   10c30:	2481                	c.addiw	s1,0
   10c32:	805ff06f          	jal	zero,10436 <_vfprintf_r+0x150>
   10c36:	00044e83          	lbu	t4,0(s0)
   10c3a:	06800793          	addi	a5,zero,104
   10c3e:	78fe8263          	beq	t4,a5,113c2 <_vfprintf_r+0x10dc>
   10c42:	0404e493          	ori	s1,s1,64
   10c46:	2481                	c.addiw	s1,0
   10c48:	feeff06f          	jal	zero,10436 <_vfprintf_r+0x150>
   10c4c:	4705                	c.li	a4,1
   10c4e:	00e79463          	bne	a5,a4,10c56 <_vfprintf_r+0x970>
   10c52:	0580106f          	jal	zero,11caa <_vfprintf_r+0x19c4>
   10c56:	4709                	c.li	a4,2
   10c58:	8da6                	c.mv	s11,s1
   10c5a:	d8e79ce3          	bne	a5,a4,109f2 <_vfprintf_r+0x70c>
   10c5e:	18c10b93          	addi	s7,sp,396
   10c62:	8d5e                	c.mv	s10,s7
   10c64:	7722                	c.ldsp	a4,40(sp)
   10c66:	00f97793          	andi	a5,s2,15
   10c6a:	1d7d                	c.addi	s10,-1
   10c6c:	97ba                	c.add	a5,a4
   10c6e:	0007c783          	lbu	a5,0(a5)
   10c72:	00495913          	srli	s2,s2,0x4
   10c76:	00fd0023          	sb	a5,0(s10)
   10c7a:	fe0915e3          	bne	s2,zero,10c64 <_vfprintf_r+0x97e>
   10c7e:	41ab8bbb          	subw	s7,s7,s10
   10c82:	84ee                	c.mv	s1,s11
   10c84:	baf1                	c.j	10660 <_vfprintf_r+0x37a>
   10c86:	06500713          	addi	a4,zero,101
   10c8a:	1f975f63          	bge	a4,s9,10e88 <_vfprintf_r+0xba2>
   10c8e:	6512                	c.ldsp	a0,256(sp)
   10c90:	65b2                	c.ldsp	a1,264(sp)
   10c92:	4601                	c.li	a2,0
   10c94:	4681                	c.li	a3,0
   10c96:	fc3e                	c.sdsp	a5,56(sp)
   10c98:	f81a                	c.sdsp	t1,48(sp)
   10c9a:	0860a0ef          	jal	ra,1ad20 <__eqtf2>
   10c9e:	7342                	c.ldsp	t1,48(sp)
   10ca0:	77e2                	c.ldsp	a5,56(sp)
   10ca2:	3e051d63          	bne	a0,zero,1109c <_vfprintf_r+0xdb6>
   10ca6:	11812703          	lw	a4,280(sp)
   10caa:	66f1                	c.lui	a3,0x1c
   10cac:	1a868693          	addi	a3,a3,424 # 1c1a8 <__clzdi2+0x96>
   10cb0:	2705                	c.addiw	a4,1
   10cb2:	00d33023          	sd	a3,0(t1)
   10cb6:	0785                	c.addi	a5,1
   10cb8:	4685                	c.li	a3,1
   10cba:	00d33423          	sd	a3,8(t1)
   10cbe:	10e12c23          	sw	a4,280(sp)
   10cc2:	0007069b          	addiw	a3,a4,0
   10cc6:	f23e                	c.sdsp	a5,288(sp)
   10cc8:	471d                	c.li	a4,7
   10cca:	0341                	c.addi	t1,16
   10ccc:	04d748e3          	blt	a4,a3,1151c <_vfprintf_r+0x1236>
   10cd0:	572e                	c.lwsp	a4,232(sp)
   10cd2:	7682                	c.ldsp	a3,32(sp)
   10cd4:	58d75363          	bge	a4,a3,1125a <_vfprintf_r+0xf74>
   10cd8:	7746                	c.ldsp	a4,112(sp)
   10cda:	76a6                	c.ldsp	a3,104(sp)
   10cdc:	0341                	c.addi	t1,16
   10cde:	fee33823          	sd	a4,-16(t1)
   10ce2:	11812703          	lw	a4,280(sp)
   10ce6:	97b6                	c.add	a5,a3
   10ce8:	fed33c23          	sd	a3,-8(t1)
   10cec:	2705                	c.addiw	a4,1
   10cee:	0007069b          	addiw	a3,a4,0
   10cf2:	10e12c23          	sw	a4,280(sp)
   10cf6:	f23e                	c.sdsp	a5,288(sp)
   10cf8:	471d                	c.li	a4,7
   10cfa:	6ed74463          	blt	a4,a3,113e2 <_vfprintf_r+0x10fc>
   10cfe:	7702                	c.ldsp	a4,32(sp)
   10d00:	fff70b9b          	addiw	s7,a4,-1
   10d04:	85705ae3          	bge	zero,s7,10558 <_vfprintf_r+0x272>
   10d08:	68f1                	c.lui	a7,0x1c
   10d0a:	46c1                	c.li	a3,16
   10d0c:	11812703          	lw	a4,280(sp)
   10d10:	33088d93          	addi	s11,a7,816 # 1c330 <zeroes.4521>
   10d14:	4cc1                	c.li	s9,16
   10d16:	4c1d                	c.li	s8,7
   10d18:	0176c763          	blt	a3,s7,10d26 <_vfprintf_r+0xa40>
   10d1c:	0170006f          	jal	zero,11532 <_vfprintf_r+0x124c>
   10d20:	3bc1                	c.addiw	s7,-16
   10d22:	017cd8e3          	bge	s9,s7,11532 <_vfprintf_r+0x124c>
   10d26:	2705                	c.addiw	a4,1
   10d28:	07c1                	c.addi	a5,16
   10d2a:	01b33023          	sd	s11,0(t1)
   10d2e:	01933423          	sd	s9,8(t1)
   10d32:	f23e                	c.sdsp	a5,288(sp)
   10d34:	10e12c23          	sw	a4,280(sp)
   10d38:	0341                	c.addi	t1,16
   10d3a:	feec53e3          	bge	s8,a4,10d20 <_vfprintf_r+0xa3a>
   10d3e:	0a10                	c.addi4spn	a2,sp,272
   10d40:	85ce                	c.mv	a1,s3
   10d42:	8552                	c.mv	a0,s4
   10d44:	096070ef          	jal	ra,17dda <__sprint_r>
   10d48:	12051763          	bne	a0,zero,10e76 <_vfprintf_r+0xb90>
   10d4c:	7792                	c.ldsp	a5,288(sp)
   10d4e:	11812703          	lw	a4,280(sp)
   10d52:	835a                	c.mv	t1,s6
   10d54:	b7f1                	c.j	10d20 <_vfprintf_r+0xa3a>
   10d56:	412a86bb          	subw	a3,s5,s2
   10d5a:	fcd05663          	bge	zero,a3,10526 <_vfprintf_r+0x240>
   10d5e:	68f1                	c.lui	a7,0x1c
   10d60:	4641                	c.li	a2,16
   10d62:	11812703          	lw	a4,280(sp)
   10d66:	33088d93          	addi	s11,a7,816 # 1c330 <zeroes.4521>
   10d6a:	4f41                	c.li	t5,16
   10d6c:	4f9d                	c.li	t6,7
   10d6e:	00d64663          	blt	a2,a3,10d7a <_vfprintf_r+0xa94>
   10d72:	a089                	c.j	10db4 <_vfprintf_r+0xace>
   10d74:	36c1                	c.addiw	a3,-16
   10d76:	02df5f63          	bge	t5,a3,10db4 <_vfprintf_r+0xace>
   10d7a:	2705                	c.addiw	a4,1
   10d7c:	07c1                	c.addi	a5,16
   10d7e:	01b33023          	sd	s11,0(t1)
   10d82:	01e33423          	sd	t5,8(t1)
   10d86:	f23e                	c.sdsp	a5,288(sp)
   10d88:	10e12c23          	sw	a4,280(sp)
   10d8c:	0341                	c.addi	t1,16
   10d8e:	feefd3e3          	bge	t6,a4,10d74 <_vfprintf_r+0xa8e>
   10d92:	0a10                	c.addi4spn	a2,sp,272
   10d94:	85ce                	c.mv	a1,s3
   10d96:	8552                	c.mv	a0,s4
   10d98:	f836                	c.sdsp	a3,48(sp)
   10d9a:	040070ef          	jal	ra,17dda <__sprint_r>
   10d9e:	ed61                	c.bnez	a0,10e76 <_vfprintf_r+0xb90>
   10da0:	76c2                	c.ldsp	a3,48(sp)
   10da2:	4f41                	c.li	t5,16
   10da4:	7792                	c.ldsp	a5,288(sp)
   10da6:	36c1                	c.addiw	a3,-16
   10da8:	11812703          	lw	a4,280(sp)
   10dac:	835a                	c.mv	t1,s6
   10dae:	4f9d                	c.li	t6,7
   10db0:	fcdf45e3          	blt	t5,a3,10d7a <_vfprintf_r+0xa94>
   10db4:	2705                	c.addiw	a4,1
   10db6:	97b6                	c.add	a5,a3
   10db8:	00d33423          	sd	a3,8(t1)
   10dbc:	01b33023          	sd	s11,0(t1)
   10dc0:	0007069b          	addiw	a3,a4,0
   10dc4:	10e12c23          	sw	a4,280(sp)
   10dc8:	f23e                	c.sdsp	a5,288(sp)
   10dca:	471d                	c.li	a4,7
   10dcc:	0341                	c.addi	t1,16
   10dce:	f4d75c63          	bge	a4,a3,10526 <_vfprintf_r+0x240>
   10dd2:	0a10                	c.addi4spn	a2,sp,272
   10dd4:	85ce                	c.mv	a1,s3
   10dd6:	8552                	c.mv	a0,s4
   10dd8:	002070ef          	jal	ra,17dda <__sprint_r>
   10ddc:	ed49                	c.bnez	a0,10e76 <_vfprintf_r+0xb90>
   10dde:	7792                	c.ldsp	a5,288(sp)
   10de0:	835a                	c.mv	t1,s6
   10de2:	f44ff06f          	jal	zero,10526 <_vfprintf_r+0x240>
   10de6:	68f1                	c.lui	a7,0x1c
   10de8:	46c1                	c.li	a3,16
   10dea:	11812703          	lw	a4,280(sp)
   10dee:	33088d93          	addi	s11,a7,816 # 1c330 <zeroes.4521>
   10df2:	4f41                	c.li	t5,16
   10df4:	4f9d                	c.li	t6,7
   10df6:	0186c663          	blt	a3,s8,10e02 <_vfprintf_r+0xb1c>
   10dfa:	a83d                	c.j	10e38 <_vfprintf_r+0xb52>
   10dfc:	3c41                	c.addiw	s8,-16
   10dfe:	038f5d63          	bge	t5,s8,10e38 <_vfprintf_r+0xb52>
   10e02:	2705                	c.addiw	a4,1
   10e04:	07c1                	c.addi	a5,16
   10e06:	01b33023          	sd	s11,0(t1)
   10e0a:	01e33423          	sd	t5,8(t1)
   10e0e:	f23e                	c.sdsp	a5,288(sp)
   10e10:	10e12c23          	sw	a4,280(sp)
   10e14:	0341                	c.addi	t1,16
   10e16:	feefd3e3          	bge	t6,a4,10dfc <_vfprintf_r+0xb16>
   10e1a:	0a10                	c.addi4spn	a2,sp,272
   10e1c:	85ce                	c.mv	a1,s3
   10e1e:	8552                	c.mv	a0,s4
   10e20:	7bb060ef          	jal	ra,17dda <__sprint_r>
   10e24:	e929                	c.bnez	a0,10e76 <_vfprintf_r+0xb90>
   10e26:	4f41                	c.li	t5,16
   10e28:	3c41                	c.addiw	s8,-16
   10e2a:	7792                	c.ldsp	a5,288(sp)
   10e2c:	11812703          	lw	a4,280(sp)
   10e30:	835a                	c.mv	t1,s6
   10e32:	4f9d                	c.li	t6,7
   10e34:	fd8f47e3          	blt	t5,s8,10e02 <_vfprintf_r+0xb1c>
   10e38:	0017069b          	addiw	a3,a4,1
   10e3c:	97e2                	c.add	a5,s8
   10e3e:	01b33023          	sd	s11,0(t1)
   10e42:	01833423          	sd	s8,8(t1)
   10e46:	f23e                	c.sdsp	a5,288(sp)
   10e48:	10d12c23          	sw	a3,280(sp)
   10e4c:	471d                	c.li	a4,7
   10e4e:	0341                	c.addi	t1,16
   10e50:	ecd75f63          	bge	a4,a3,1052e <_vfprintf_r+0x248>
   10e54:	0a10                	c.addi4spn	a2,sp,272
   10e56:	85ce                	c.mv	a1,s3
   10e58:	8552                	c.mv	a0,s4
   10e5a:	781060ef          	jal	ra,17dda <__sprint_r>
   10e5e:	ed01                	c.bnez	a0,10e76 <_vfprintf_r+0xb90>
   10e60:	7792                	c.ldsp	a5,288(sp)
   10e62:	835a                	c.mv	t1,s6
   10e64:	ecaff06f          	jal	zero,1052e <_vfprintf_r+0x248>
   10e68:	0a10                	c.addi4spn	a2,sp,272
   10e6a:	85ce                	c.mv	a1,s3
   10e6c:	8552                	c.mv	a0,s4
   10e6e:	76d060ef          	jal	ra,17dda <__sprint_r>
   10e72:	f0050263          	beq	a0,zero,10576 <_vfprintf_r+0x290>
   10e76:	67e2                	c.ldsp	a5,24(sp)
   10e78:	f2078163          	beq	a5,zero,1059a <_vfprintf_r+0x2b4>
   10e7c:	85be                	c.mv	a1,a5
   10e7e:	8552                	c.mv	a0,s4
   10e80:	7b2010ef          	jal	ra,12632 <_free_r>
   10e84:	f16ff06f          	jal	zero,1059a <_vfprintf_r+0x2b4>
   10e88:	11812603          	lw	a2,280(sp)
   10e8c:	00178c13          	addi	s8,a5,1
   10e90:	7782                	c.ldsp	a5,32(sp)
   10e92:	0016071b          	addiw	a4,a2,1
   10e96:	4585                	c.li	a1,1
   10e98:	01a33023          	sd	s10,0(t1)
   10e9c:	86ba                	c.mv	a3,a4
   10e9e:	01030b93          	addi	s7,t1,16
   10ea2:	32f5d163          	bge	a1,a5,111c4 <_vfprintf_r+0xede>
   10ea6:	4605                	c.li	a2,1
   10ea8:	10d12c23          	sw	a3,280(sp)
   10eac:	00c33423          	sd	a2,8(t1)
   10eb0:	f262                	c.sdsp	s8,288(sp)
   10eb2:	469d                	c.li	a3,7
   10eb4:	5ae6cf63          	blt	a3,a4,11472 <_vfprintf_r+0x118c>
   10eb8:	77a6                	c.ldsp	a5,104(sp)
   10eba:	0017069b          	addiw	a3,a4,1
   10ebe:	7746                	c.ldsp	a4,112(sp)
   10ec0:	9c3e                	c.add	s8,a5
   10ec2:	00fbb423          	sd	a5,8(s7)
   10ec6:	00ebb023          	sd	a4,0(s7)
   10eca:	10d12c23          	sw	a3,280(sp)
   10ece:	0006871b          	addiw	a4,a3,0
   10ed2:	f262                	c.sdsp	s8,288(sp)
   10ed4:	469d                	c.li	a3,7
   10ed6:	0bc1                	c.addi	s7,16
   10ed8:	5ae6c963          	blt	a3,a4,1148a <_vfprintf_r+0x11a4>
   10edc:	6512                	c.ldsp	a0,256(sp)
   10ede:	65b2                	c.ldsp	a1,264(sp)
   10ee0:	00170e1b          	addiw	t3,a4,1
   10ee4:	4601                	c.li	a2,0
   10ee6:	4681                	c.li	a3,0
   10ee8:	f872                	c.sdsp	t3,48(sp)
   10eea:	fc3a                	c.sdsp	a4,56(sp)
   10eec:	635090ef          	jal	ra,1ad20 <__eqtf2>
   10ef0:	7e42                	c.ldsp	t3,48(sp)
   10ef2:	7782                	c.ldsp	a5,32(sp)
   10ef4:	010b8313          	addi	t1,s7,16
   10ef8:	000e061b          	addiw	a2,t3,0
   10efc:	fff78c9b          	addiw	s9,a5,-1
   10f00:	2e050263          	beq	a0,zero,111e4 <_vfprintf_r+0xefe>
   10f04:	001d0813          	addi	a6,s10,1
   10f08:	9c66                	c.add	s8,s9
   10f0a:	010bb023          	sd	a6,0(s7)
   10f0e:	019bb423          	sd	s9,8(s7)
   10f12:	f262                	c.sdsp	s8,288(sp)
   10f14:	11c12c23          	sw	t3,280(sp)
   10f18:	469d                	c.li	a3,7
   10f1a:	44c6c063          	blt	a3,a2,1135a <_vfprintf_r+0x1074>
   10f1e:	7762                	c.ldsp	a4,56(sp)
   10f20:	020b8693          	addi	a3,s7,32
   10f24:	8b9a                	c.mv	s7,t1
   10f26:	0027061b          	addiw	a2,a4,2
   10f2a:	8336                	c.mv	t1,a3
   10f2c:	76e6                	c.ldsp	a3,120(sp)
   10f2e:	1998                	c.addi4spn	a4,sp,240
   10f30:	00ebb023          	sd	a4,0(s7)
   10f34:	00dc07b3          	add	a5,s8,a3
   10f38:	00dbb423          	sd	a3,8(s7)
   10f3c:	f23e                	c.sdsp	a5,288(sp)
   10f3e:	10c12c23          	sw	a2,280(sp)
   10f42:	471d                	c.li	a4,7
   10f44:	e0c75a63          	bge	a4,a2,10558 <_vfprintf_r+0x272>
   10f48:	bc25                	c.j	10980 <_vfprintf_r+0x69a>
   10f4a:	4705                	c.li	a4,1
   10f4c:	8da6                	c.mv	s11,s1
   10f4e:	a8e79fe3          	bne	a5,a4,109ec <_vfprintf_r+0x706>
   10f52:	47a5                	c.li	a5,9
   10f54:	3527ee63          	bltu	a5,s2,112b0 <_vfprintf_r+0xfca>
   10f58:	0309091b          	addiw	s2,s2,48
   10f5c:	192105a3          	sb	s2,395(sp)
   10f60:	84ee                	c.mv	s1,s11
   10f62:	4b85                	c.li	s7,1
   10f64:	18b10d13          	addi	s10,sp,395
   10f68:	ef8ff06f          	jal	zero,10660 <_vfprintf_r+0x37a>
   10f6c:	68f1                	c.lui	a7,0x1c
   10f6e:	4641                	c.li	a2,16
   10f70:	11812703          	lw	a4,280(sp)
   10f74:	32088893          	addi	a7,a7,800 # 1c320 <blanks.4520>
   10f78:	4f41                	c.li	t5,16
   10f7a:	439d                	c.li	t2,7
   10f7c:	00d64663          	blt	a2,a3,10f88 <_vfprintf_r+0xca2>
   10f80:	a0b1                	c.j	10fcc <_vfprintf_r+0xce6>
   10f82:	36c1                	c.addiw	a3,-16
   10f84:	04df5463          	bge	t5,a3,10fcc <_vfprintf_r+0xce6>
   10f88:	2705                	c.addiw	a4,1
   10f8a:	07c1                	c.addi	a5,16
   10f8c:	01133023          	sd	a7,0(t1)
   10f90:	01e33423          	sd	t5,8(t1)
   10f94:	f23e                	c.sdsp	a5,288(sp)
   10f96:	10e12c23          	sw	a4,280(sp)
   10f9a:	0341                	c.addi	t1,16
   10f9c:	fee3d3e3          	bge	t2,a4,10f82 <_vfprintf_r+0xc9c>
   10fa0:	0a10                	c.addi4spn	a2,sp,272
   10fa2:	85ce                	c.mv	a1,s3
   10fa4:	8552                	c.mv	a0,s4
   10fa6:	e0c6                	c.sdsp	a7,64(sp)
   10fa8:	fc16                	c.sdsp	t0,56(sp)
   10faa:	f836                	c.sdsp	a3,48(sp)
   10fac:	62f060ef          	jal	ra,17dda <__sprint_r>
   10fb0:	ec0513e3          	bne	a0,zero,10e76 <_vfprintf_r+0xb90>
   10fb4:	76c2                	c.ldsp	a3,48(sp)
   10fb6:	4f41                	c.li	t5,16
   10fb8:	7792                	c.ldsp	a5,288(sp)
   10fba:	36c1                	c.addiw	a3,-16
   10fbc:	11812703          	lw	a4,280(sp)
   10fc0:	6886                	c.ldsp	a7,64(sp)
   10fc2:	72e2                	c.ldsp	t0,56(sp)
   10fc4:	835a                	c.mv	t1,s6
   10fc6:	439d                	c.li	t2,7
   10fc8:	fcdf40e3          	blt	t5,a3,10f88 <_vfprintf_r+0xca2>
   10fcc:	2705                	c.addiw	a4,1
   10fce:	97b6                	c.add	a5,a3
   10fd0:	00d33423          	sd	a3,8(t1)
   10fd4:	01133023          	sd	a7,0(t1)
   10fd8:	0007069b          	addiw	a3,a4,0
   10fdc:	10e12c23          	sw	a4,280(sp)
   10fe0:	f23e                	c.sdsp	a5,288(sp)
   10fe2:	471d                	c.li	a4,7
   10fe4:	0341                	c.addi	t1,16
   10fe6:	ced75063          	bge	a4,a3,104c6 <_vfprintf_r+0x1e0>
   10fea:	0a10                	c.addi4spn	a2,sp,272
   10fec:	85ce                	c.mv	a1,s3
   10fee:	8552                	c.mv	a0,s4
   10ff0:	f816                	c.sdsp	t0,48(sp)
   10ff2:	5e9060ef          	jal	ra,17dda <__sprint_r>
   10ff6:	e80510e3          	bne	a0,zero,10e76 <_vfprintf_r+0xb90>
   10ffa:	7792                	c.ldsp	a5,288(sp)
   10ffc:	72c2                	c.ldsp	t0,48(sp)
   10ffe:	835a                	c.mv	t1,s6
   11000:	cc6ff06f          	jal	zero,104c6 <_vfprintf_r+0x1e0>
   11004:	0a10                	c.addi4spn	a2,sp,272
   11006:	85ce                	c.mv	a1,s3
   11008:	8552                	c.mv	a0,s4
   1100a:	5d1060ef          	jal	ra,17dda <__sprint_r>
   1100e:	e60514e3          	bne	a0,zero,10e76 <_vfprintf_r+0xb90>
   11012:	7792                	c.ldsp	a5,288(sp)
   11014:	835a                	c.mv	t1,s6
   11016:	d08ff06f          	jal	zero,1051e <_vfprintf_r+0x238>
   1101a:	68f1                	c.lui	a7,0x1c
   1101c:	46c1                	c.li	a3,16
   1101e:	11812703          	lw	a4,280(sp)
   11022:	32088893          	addi	a7,a7,800 # 1c320 <blanks.4520>
   11026:	4bc1                	c.li	s7,16
   11028:	4c1d                	c.li	s8,7
   1102a:	0096c663          	blt	a3,s1,11036 <_vfprintf_r+0xd50>
   1102e:	a081                	c.j	1106e <_vfprintf_r+0xd88>
   11030:	34c1                	c.addiw	s1,-16
   11032:	029bde63          	bge	s7,s1,1106e <_vfprintf_r+0xd88>
   11036:	2705                	c.addiw	a4,1
   11038:	07c1                	c.addi	a5,16
   1103a:	01133023          	sd	a7,0(t1)
   1103e:	01733423          	sd	s7,8(t1)
   11042:	f23e                	c.sdsp	a5,288(sp)
   11044:	10e12c23          	sw	a4,280(sp)
   11048:	0341                	c.addi	t1,16
   1104a:	feec53e3          	bge	s8,a4,11030 <_vfprintf_r+0xd4a>
   1104e:	0a10                	c.addi4spn	a2,sp,272
   11050:	85ce                	c.mv	a1,s3
   11052:	8552                	c.mv	a0,s4
   11054:	f846                	c.sdsp	a7,48(sp)
   11056:	585060ef          	jal	ra,17dda <__sprint_r>
   1105a:	e0051ee3          	bne	a0,zero,10e76 <_vfprintf_r+0xb90>
   1105e:	34c1                	c.addiw	s1,-16
   11060:	7792                	c.ldsp	a5,288(sp)
   11062:	11812703          	lw	a4,280(sp)
   11066:	78c2                	c.ldsp	a7,48(sp)
   11068:	835a                	c.mv	t1,s6
   1106a:	fc9bc6e3          	blt	s7,s1,11036 <_vfprintf_r+0xd50>
   1106e:	0017069b          	addiw	a3,a4,1
   11072:	97a6                	c.add	a5,s1
   11074:	01133023          	sd	a7,0(t1)
   11078:	00933423          	sd	s1,8(t1)
   1107c:	f23e                	c.sdsp	a5,288(sp)
   1107e:	10d12c23          	sw	a3,280(sp)
   11082:	471d                	c.li	a4,7
   11084:	ced75063          	bge	a4,a3,10564 <_vfprintf_r+0x27e>
   11088:	0a10                	c.addi4spn	a2,sp,272
   1108a:	85ce                	c.mv	a1,s3
   1108c:	8552                	c.mv	a0,s4
   1108e:	54d060ef          	jal	ra,17dda <__sprint_r>
   11092:	de0512e3          	bne	a0,zero,10e76 <_vfprintf_r+0xb90>
   11096:	7792                	c.ldsp	a5,288(sp)
   11098:	cccff06f          	jal	zero,10564 <_vfprintf_r+0x27e>
   1109c:	562e                	c.lwsp	a2,232(sp)
   1109e:	40c05263          	bge	zero,a2,114a2 <_vfprintf_r+0x11bc>
   110a2:	6746                	c.ldsp	a4,80(sp)
   110a4:	7682                	c.ldsp	a3,32(sp)
   110a6:	00070b9b          	addiw	s7,a4,0
   110aa:	28e6c463          	blt	a3,a4,11332 <_vfprintf_r+0x104c>
   110ae:	03705263          	bge	zero,s7,110d2 <_vfprintf_r+0xdec>
   110b2:	11812703          	lw	a4,280(sp)
   110b6:	97de                	c.add	a5,s7
   110b8:	01a33023          	sd	s10,0(t1)
   110bc:	0017069b          	addiw	a3,a4,1
   110c0:	01733423          	sd	s7,8(t1)
   110c4:	f23e                	c.sdsp	a5,288(sp)
   110c6:	10d12c23          	sw	a3,280(sp)
   110ca:	471d                	c.li	a4,7
   110cc:	0341                	c.addi	t1,16
   110ce:	6ed74d63          	blt	a4,a3,117c8 <_vfprintf_r+0x14e2>
   110d2:	fffbc713          	xori	a4,s7,-1
   110d6:	977d                	c.srai	a4,0x3f
   110d8:	00ebfbb3          	and	s7,s7,a4
   110dc:	6746                	c.ldsp	a4,80(sp)
   110de:	41770bbb          	subw	s7,a4,s7
   110e2:	33704b63          	blt	zero,s7,11418 <_vfprintf_r+0x1132>
   110e6:	66c6                	c.ldsp	a3,80(sp)
   110e8:	4004f713          	andi	a4,s1,1024
   110ec:	00dd0c33          	add	s8,s10,a3
   110f0:	54071b63          	bne	a4,zero,11646 <_vfprintf_r+0x1360>
   110f4:	572e                	c.lwsp	a4,232(sp)
   110f6:	7682                	c.ldsp	a3,32(sp)
   110f8:	00d74663          	blt	a4,a3,11104 <_vfprintf_r+0xe1e>
   110fc:	0014f693          	andi	a3,s1,1
   11100:	6e068063          	beq	a3,zero,117e0 <_vfprintf_r+0x14fa>
   11104:	76c6                	c.ldsp	a3,112(sp)
   11106:	7626                	c.ldsp	a2,104(sp)
   11108:	0341                	c.addi	t1,16
   1110a:	fed33823          	sd	a3,-16(t1)
   1110e:	11812683          	lw	a3,280(sp)
   11112:	97b2                	c.add	a5,a2
   11114:	fec33c23          	sd	a2,-8(t1)
   11118:	2685                	c.addiw	a3,1
   1111a:	0006861b          	addiw	a2,a3,0
   1111e:	10d12c23          	sw	a3,280(sp)
   11122:	f23e                	c.sdsp	a5,288(sp)
   11124:	469d                	c.li	a3,7
   11126:	12c6cae3          	blt	a3,a2,11a5a <_vfprintf_r+0x1774>
   1112a:	7682                	c.ldsp	a3,32(sp)
   1112c:	40e6863b          	subw	a2,a3,a4
   11130:	96ea                	c.add	a3,s10
   11132:	418686bb          	subw	a3,a3,s8
   11136:	8732                	c.mv	a4,a2
   11138:	00c6d363          	bge	a3,a2,1113e <_vfprintf_r+0xe58>
   1113c:	8736                	c.mv	a4,a3
   1113e:	00070b9b          	addiw	s7,a4,0
   11142:	03705263          	bge	zero,s7,11166 <_vfprintf_r+0xe80>
   11146:	11812703          	lw	a4,280(sp)
   1114a:	97de                	c.add	a5,s7
   1114c:	01833023          	sd	s8,0(t1)
   11150:	0017069b          	addiw	a3,a4,1
   11154:	01733423          	sd	s7,8(t1)
   11158:	f23e                	c.sdsp	a5,288(sp)
   1115a:	10d12c23          	sw	a3,280(sp)
   1115e:	471d                	c.li	a4,7
   11160:	0341                	c.addi	t1,16
   11162:	1cd74ae3          	blt	a4,a3,11b36 <_vfprintf_r+0x1850>
   11166:	fffbc713          	xori	a4,s7,-1
   1116a:	977d                	c.srai	a4,0x3f
   1116c:	00ebfbb3          	and	s7,s7,a4
   11170:	41760bbb          	subw	s7,a2,s7
   11174:	bf705263          	bge	zero,s7,10558 <_vfprintf_r+0x272>
   11178:	68f1                	c.lui	a7,0x1c
   1117a:	46c1                	c.li	a3,16
   1117c:	11812703          	lw	a4,280(sp)
   11180:	33088d93          	addi	s11,a7,816 # 1c330 <zeroes.4521>
   11184:	4cc1                	c.li	s9,16
   11186:	4c1d                	c.li	s8,7
   11188:	0176c663          	blt	a3,s7,11194 <_vfprintf_r+0xeae>
   1118c:	a65d                	c.j	11532 <_vfprintf_r+0x124c>
   1118e:	3bc1                	c.addiw	s7,-16
   11190:	3b7cd163          	bge	s9,s7,11532 <_vfprintf_r+0x124c>
   11194:	2705                	c.addiw	a4,1
   11196:	07c1                	c.addi	a5,16
   11198:	01b33023          	sd	s11,0(t1)
   1119c:	01933423          	sd	s9,8(t1)
   111a0:	f23e                	c.sdsp	a5,288(sp)
   111a2:	10e12c23          	sw	a4,280(sp)
   111a6:	0341                	c.addi	t1,16
   111a8:	feec53e3          	bge	s8,a4,1118e <_vfprintf_r+0xea8>
   111ac:	0a10                	c.addi4spn	a2,sp,272
   111ae:	85ce                	c.mv	a1,s3
   111b0:	8552                	c.mv	a0,s4
   111b2:	429060ef          	jal	ra,17dda <__sprint_r>
   111b6:	cc0510e3          	bne	a0,zero,10e76 <_vfprintf_r+0xb90>
   111ba:	7792                	c.ldsp	a5,288(sp)
   111bc:	11812703          	lw	a4,280(sp)
   111c0:	835a                	c.mv	t1,s6
   111c2:	b7f1                	c.j	1118e <_vfprintf_r+0xea8>
   111c4:	0014f513          	andi	a0,s1,1
   111c8:	cc051fe3          	bne	a0,zero,10ea6 <_vfprintf_r+0xbc0>
   111cc:	00b33423          	sd	a1,8(t1)
   111d0:	f262                	c.sdsp	s8,288(sp)
   111d2:	10e12c23          	sw	a4,280(sp)
   111d6:	469d                	c.li	a3,7
   111d8:	18e6c163          	blt	a3,a4,1135a <_vfprintf_r+0x1074>
   111dc:	2609                	c.addiw	a2,2
   111de:	02030313          	addi	t1,t1,32
   111e2:	b3a9                	c.j	10f2c <_vfprintf_r+0xc46>
   111e4:	d59054e3          	bge	zero,s9,10f2c <_vfprintf_r+0xc46>
   111e8:	4741                	c.li	a4,16
   111ea:	45975fe3          	bge	a4,s9,11e48 <_vfprintf_r+0x1b62>
   111ee:	68f1                	c.lui	a7,0x1c
   111f0:	33088d93          	addi	s11,a7,816 # 1c330 <zeroes.4521>
   111f4:	4841                	c.li	a6,16
   111f6:	4d1d                	c.li	s10,7
   111f8:	a031                	c.j	11204 <_vfprintf_r+0xf1e>
   111fa:	3cc1                	c.addiw	s9,-16
   111fc:	15985063          	bge	a6,s9,1133c <_vfprintf_r+0x1056>
   11200:	00170e1b          	addiw	t3,a4,1
   11204:	0c41                	c.addi	s8,16
   11206:	01bbb023          	sd	s11,0(s7)
   1120a:	010bb423          	sd	a6,8(s7)
   1120e:	f262                	c.sdsp	s8,288(sp)
   11210:	000e071b          	addiw	a4,t3,0
   11214:	11c12c23          	sw	t3,280(sp)
   11218:	0bc1                	c.addi	s7,16
   1121a:	feed50e3          	bge	s10,a4,111fa <_vfprintf_r+0xf14>
   1121e:	0a10                	c.addi4spn	a2,sp,272
   11220:	85ce                	c.mv	a1,s3
   11222:	8552                	c.mv	a0,s4
   11224:	3b7060ef          	jal	ra,17dda <__sprint_r>
   11228:	c40517e3          	bne	a0,zero,10e76 <_vfprintf_r+0xb90>
   1122c:	7c12                	c.ldsp	s8,288(sp)
   1122e:	11812703          	lw	a4,280(sp)
   11232:	8bda                	c.mv	s7,s6
   11234:	4841                	c.li	a6,16
   11236:	b7d1                	c.j	111fa <_vfprintf_r+0xf14>
   11238:	010df793          	andi	a5,s11,16
   1123c:	eb8d                	c.bnez	a5,1126e <_vfprintf_r+0xf88>
   1123e:	66c2                	c.ldsp	a3,16(sp)
   11240:	040df793          	andi	a5,s11,64
   11244:	0006a903          	lw	s2,0(a3)
   11248:	36078763          	beq	a5,zero,115b6 <_vfprintf_r+0x12d0>
   1124c:	1942                	c.slli	s2,0x30
   1124e:	03095913          	srli	s2,s2,0x30
   11252:	e83a                	c.sdsp	a4,16(sp)
   11254:	4785                	c.li	a5,1
   11256:	c4eff06f          	jal	zero,106a4 <_vfprintf_r+0x3be>
   1125a:	0014f713          	andi	a4,s1,1
   1125e:	ae070d63          	beq	a4,zero,10558 <_vfprintf_r+0x272>
   11262:	bc9d                	c.j	10cd8 <_vfprintf_r+0x9f2>
   11264:	67a2                	c.ldsp	a5,8(sp)
   11266:	8d22                	c.mv	s10,s0
   11268:	e31c                	c.sd	a5,0(a4)
   1126a:	b20ff06f          	jal	zero,1058a <_vfprintf_r+0x2a4>
   1126e:	67c2                	c.ldsp	a5,16(sp)
   11270:	e83a                	c.sdsp	a4,16(sp)
   11272:	0007b903          	ld	s2,0(a5)
   11276:	4785                	c.li	a5,1
   11278:	c2cff06f          	jal	zero,106a4 <_vfprintf_r+0x3be>
   1127c:	67c2                	c.ldsp	a5,16(sp)
   1127e:	639c                	c.ld	a5,0(a5)
   11280:	893e                	c.mv	s2,a5
   11282:	bb8ff06f          	jal	zero,1063a <_vfprintf_r+0x354>
   11286:	67c2                	c.ldsp	a5,16(sp)
   11288:	0007b903          	ld	s2,0(a5)
   1128c:	c0cff06f          	jal	zero,10698 <_vfprintf_r+0x3b2>
   11290:	67c2                	c.ldsp	a5,16(sp)
   11292:	07bd                	c.addi	a5,15
   11294:	9bc1                	c.andi	a5,-16
   11296:	6398                	c.ld	a4,0(a5)
   11298:	6794                	c.ld	a3,8(a5)
   1129a:	07c1                	c.addi	a5,16
   1129c:	e83e                	c.sdsp	a5,16(sp)
   1129e:	e23a                	c.sdsp	a4,256(sp)
   112a0:	e636                	c.sdsp	a3,264(sp)
   112a2:	c72ff06f          	jal	zero,10714 <_vfprintf_r+0x42e>
   112a6:	e83a                	c.sdsp	a4,16(sp)
   112a8:	47a5                	c.li	a5,9
   112aa:	8da6                	c.mv	s11,s1
   112ac:	cb27f6e3          	bgeu	a5,s2,10f58 <_vfprintf_r+0xc72>
   112b0:	400df713          	andi	a4,s11,1024
   112b4:	18c10b93          	addi	s7,sp,396
   112b8:	2701                	c.addiw	a4,0
   112ba:	f002                	c.sdsp	zero,32(sp)
   112bc:	865e                	c.mv	a2,s7
   112be:	44a9                	c.li	s1,10
   112c0:	46a5                	c.li	a3,9
   112c2:	0ff00893          	addi	a7,zero,255
   112c6:	a039                	c.j	112d4 <_vfprintf_r+0xfee>
   112c8:	029957b3          	divu	a5,s2,s1
   112cc:	9b26f9e3          	bgeu	a3,s2,10c7e <_vfprintf_r+0x998>
   112d0:	893e                	c.mv	s2,a5
   112d2:	866a                	c.mv	a2,s10
   112d4:	7582                	c.ldsp	a1,32(sp)
   112d6:	fff60d13          	addi	s10,a2,-1
   112da:	2585                	c.addiw	a1,1
   112dc:	f02e                	c.sdsp	a1,32(sp)
   112de:	029977b3          	remu	a5,s2,s1
   112e2:	0307879b          	addiw	a5,a5,48
   112e6:	fef60fa3          	sb	a5,-1(a2)
   112ea:	df79                	c.beqz	a4,112c8 <_vfprintf_r+0xfe2>
   112ec:	7786                	c.ldsp	a5,96(sp)
   112ee:	0007c783          	lbu	a5,0(a5)
   112f2:	fcf59be3          	bne	a1,a5,112c8 <_vfprintf_r+0xfe2>
   112f6:	fd1789e3          	beq	a5,a7,112c8 <_vfprintf_r+0xfe2>
   112fa:	9926f2e3          	bgeu	a3,s2,10c7e <_vfprintf_r+0x998>
   112fe:	678a                	c.ldsp	a5,128(sp)
   11300:	65aa                	c.ldsp	a1,136(sp)
   11302:	f83a                	c.sdsp	a4,48(sp)
   11304:	40fd0d33          	sub	s10,s10,a5
   11308:	863e                	c.mv	a2,a5
   1130a:	856a                	c.mv	a0,s10
   1130c:	ec1a                	c.sdsp	t1,24(sp)
   1130e:	657040ef          	jal	ra,16164 <strncpy>
   11312:	7706                	c.ldsp	a4,96(sp)
   11314:	029957b3          	divu	a5,s2,s1
   11318:	6362                	c.ldsp	t1,24(sp)
   1131a:	00174603          	lbu	a2,1(a4)
   1131e:	f002                	c.sdsp	zero,32(sp)
   11320:	46a5                	c.li	a3,9
   11322:	00c03633          	sltu	a2,zero,a2
   11326:	9732                	c.add	a4,a2
   11328:	f0ba                	c.sdsp	a4,96(sp)
   1132a:	0ff00893          	addi	a7,zero,255
   1132e:	7742                	c.ldsp	a4,48(sp)
   11330:	b745                	c.j	112d0 <_vfprintf_r+0xfea>
   11332:	00068b9b          	addiw	s7,a3,0
   11336:	d7704ee3          	blt	zero,s7,110b2 <_vfprintf_r+0xdcc>
   1133a:	bb61                	c.j	110d2 <_vfprintf_r+0xdec>
   1133c:	0017061b          	addiw	a2,a4,1
   11340:	010b8713          	addi	a4,s7,16
   11344:	9c66                	c.add	s8,s9
   11346:	01bbb023          	sd	s11,0(s7)
   1134a:	019bb423          	sd	s9,8(s7)
   1134e:	f262                	c.sdsp	s8,288(sp)
   11350:	10c12c23          	sw	a2,280(sp)
   11354:	469d                	c.li	a3,7
   11356:	44c6d463          	bge	a3,a2,1179e <_vfprintf_r+0x14b8>
   1135a:	0a10                	c.addi4spn	a2,sp,272
   1135c:	85ce                	c.mv	a1,s3
   1135e:	8552                	c.mv	a0,s4
   11360:	27b060ef          	jal	ra,17dda <__sprint_r>
   11364:	b00519e3          	bne	a0,zero,10e76 <_vfprintf_r+0xb90>
   11368:	11812603          	lw	a2,280(sp)
   1136c:	7c12                	c.ldsp	s8,288(sp)
   1136e:	1a010313          	addi	t1,sp,416
   11372:	2605                	c.addiw	a2,1
   11374:	8bda                	c.mv	s7,s6
   11376:	be5d                	c.j	10f2c <_vfprintf_r+0xc46>
   11378:	8da6                	c.mv	s11,s1
   1137a:	821ff06f          	jal	zero,10b9a <_vfprintf_r+0x8b4>
   1137e:	67f1                	c.lui	a5,0x1c
   11380:	18878793          	addi	a5,a5,392 # 1c188 <__clzdi2+0x76>
   11384:	f43e                	c.sdsp	a5,40(sp)
   11386:	66c2                	c.ldsp	a3,16(sp)
   11388:	0204f793          	andi	a5,s1,32
   1138c:	00868713          	addi	a4,a3,8
   11390:	cbf1                	c.beqz	a5,11464 <_vfprintf_r+0x117e>
   11392:	0006b903          	ld	s2,0(a3)
   11396:	0014f793          	andi	a5,s1,1
   1139a:	cf81                	c.beqz	a5,113b2 <_vfprintf_r+0x10cc>
   1139c:	00090b63          	beq	s2,zero,113b2 <_vfprintf_r+0x10cc>
   113a0:	0024e493          	ori	s1,s1,2
   113a4:	03000793          	addi	a5,zero,48
   113a8:	0ef10023          	sb	a5,224(sp)
   113ac:	0f9100a3          	sb	s9,225(sp)
   113b0:	2481                	c.addiw	s1,0
   113b2:	bff4f493          	andi	s1,s1,-1025
   113b6:	00048d9b          	addiw	s11,s1,0
   113ba:	e83a                	c.sdsp	a4,16(sp)
   113bc:	4789                	c.li	a5,2
   113be:	ae6ff06f          	jal	zero,106a4 <_vfprintf_r+0x3be>
   113c2:	2004e493          	ori	s1,s1,512
   113c6:	00144e83          	lbu	t4,1(s0)
   113ca:	2481                	c.addiw	s1,0
   113cc:	0405                	c.addi	s0,1
   113ce:	868ff06f          	jal	zero,10436 <_vfprintf_r+0x150>
   113d2:	0204e493          	ori	s1,s1,32
   113d6:	00144e83          	lbu	t4,1(s0)
   113da:	2481                	c.addiw	s1,0
   113dc:	0405                	c.addi	s0,1
   113de:	858ff06f          	jal	zero,10436 <_vfprintf_r+0x150>
   113e2:	0a10                	c.addi4spn	a2,sp,272
   113e4:	85ce                	c.mv	a1,s3
   113e6:	8552                	c.mv	a0,s4
   113e8:	1f3060ef          	jal	ra,17dda <__sprint_r>
   113ec:	a80515e3          	bne	a0,zero,10e76 <_vfprintf_r+0xb90>
   113f0:	7792                	c.ldsp	a5,288(sp)
   113f2:	835a                	c.mv	t1,s6
   113f4:	b229                	c.j	10cfe <_vfprintf_r+0xa18>
   113f6:	67f1                	c.lui	a5,0x1c
   113f8:	17078793          	addi	a5,a5,368 # 1c170 <__clzdi2+0x5e>
   113fc:	f43e                	c.sdsp	a5,40(sp)
   113fe:	b761                	c.j	11386 <_vfprintf_r+0x10a0>
   11400:	4799                	c.li	a5,6
   11402:	000c0b9b          	addiw	s7,s8,0
   11406:	3d87eb63          	bltu	a5,s8,117dc <_vfprintf_r+0x14f6>
   1140a:	6871                	c.lui	a6,0x1c
   1140c:	895e                	c.mv	s2,s7
   1140e:	e86e                	c.sdsp	s11,16(sp)
   11410:	1a080d13          	addi	s10,a6,416 # 1c1a0 <__clzdi2+0x8e>
   11414:	88aff06f          	jal	zero,1049e <_vfprintf_r+0x1b8>
   11418:	68f1                	c.lui	a7,0x1c
   1141a:	46c1                	c.li	a3,16
   1141c:	11812703          	lw	a4,280(sp)
   11420:	33088d93          	addi	s11,a7,816 # 1c330 <zeroes.4521>
   11424:	4cc1                	c.li	s9,16
   11426:	4c1d                	c.li	s8,7
   11428:	0176c663          	blt	a3,s7,11434 <_vfprintf_r+0x114e>
   1142c:	a2ed                	c.j	11616 <_vfprintf_r+0x1330>
   1142e:	3bc1                	c.addiw	s7,-16
   11430:	1f7cd363          	bge	s9,s7,11616 <_vfprintf_r+0x1330>
   11434:	2705                	c.addiw	a4,1
   11436:	07c1                	c.addi	a5,16
   11438:	01b33023          	sd	s11,0(t1)
   1143c:	01933423          	sd	s9,8(t1)
   11440:	f23e                	c.sdsp	a5,288(sp)
   11442:	10e12c23          	sw	a4,280(sp)
   11446:	0341                	c.addi	t1,16
   11448:	feec53e3          	bge	s8,a4,1142e <_vfprintf_r+0x1148>
   1144c:	0a10                	c.addi4spn	a2,sp,272
   1144e:	85ce                	c.mv	a1,s3
   11450:	8552                	c.mv	a0,s4
   11452:	189060ef          	jal	ra,17dda <__sprint_r>
   11456:	a20510e3          	bne	a0,zero,10e76 <_vfprintf_r+0xb90>
   1145a:	7792                	c.ldsp	a5,288(sp)
   1145c:	11812703          	lw	a4,280(sp)
   11460:	835a                	c.mv	t1,s6
   11462:	b7f1                	c.j	1142e <_vfprintf_r+0x1148>
   11464:	0104f793          	andi	a5,s1,16
   11468:	c3c5                	c.beqz	a5,11508 <_vfprintf_r+0x1222>
   1146a:	67c2                	c.ldsp	a5,16(sp)
   1146c:	0007b903          	ld	s2,0(a5)
   11470:	b71d                	c.j	11396 <_vfprintf_r+0x10b0>
   11472:	0a10                	c.addi4spn	a2,sp,272
   11474:	85ce                	c.mv	a1,s3
   11476:	8552                	c.mv	a0,s4
   11478:	163060ef          	jal	ra,17dda <__sprint_r>
   1147c:	9e051de3          	bne	a0,zero,10e76 <_vfprintf_r+0xb90>
   11480:	7c12                	c.ldsp	s8,288(sp)
   11482:	11812703          	lw	a4,280(sp)
   11486:	8bda                	c.mv	s7,s6
   11488:	bc05                	c.j	10eb8 <_vfprintf_r+0xbd2>
   1148a:	0a10                	c.addi4spn	a2,sp,272
   1148c:	85ce                	c.mv	a1,s3
   1148e:	8552                	c.mv	a0,s4
   11490:	14b060ef          	jal	ra,17dda <__sprint_r>
   11494:	9e0511e3          	bne	a0,zero,10e76 <_vfprintf_r+0xb90>
   11498:	7c12                	c.ldsp	s8,288(sp)
   1149a:	11812703          	lw	a4,280(sp)
   1149e:	8bda                	c.mv	s7,s6
   114a0:	bc35                	c.j	10edc <_vfprintf_r+0xbf6>
   114a2:	11812703          	lw	a4,280(sp)
   114a6:	66f1                	c.lui	a3,0x1c
   114a8:	1a868693          	addi	a3,a3,424 # 1c1a8 <__clzdi2+0x96>
   114ac:	2705                	c.addiw	a4,1
   114ae:	00d33023          	sd	a3,0(t1)
   114b2:	0785                	c.addi	a5,1
   114b4:	4685                	c.li	a3,1
   114b6:	00d33423          	sd	a3,8(t1)
   114ba:	10e12c23          	sw	a4,280(sp)
   114be:	0007069b          	addiw	a3,a4,0
   114c2:	f23e                	c.sdsp	a5,288(sp)
   114c4:	471d                	c.li	a4,7
   114c6:	0341                	c.addi	t1,16
   114c8:	2ed74163          	blt	a4,a3,117aa <_vfprintf_r+0x14c4>
   114cc:	c4061963          	bne	a2,zero,1091e <_vfprintf_r+0x638>
   114d0:	7682                	c.ldsp	a3,32(sp)
   114d2:	0014f713          	andi	a4,s1,1
   114d6:	8f55                	c.or	a4,a3
   114d8:	e319                	c.bnez	a4,114de <_vfprintf_r+0x11f8>
   114da:	87eff06f          	jal	zero,10558 <_vfprintf_r+0x272>
   114de:	7746                	c.ldsp	a4,112(sp)
   114e0:	76a6                	c.ldsp	a3,104(sp)
   114e2:	00e33023          	sd	a4,0(t1)
   114e6:	11812703          	lw	a4,280(sp)
   114ea:	97b6                	c.add	a5,a3
   114ec:	00d33423          	sd	a3,8(t1)
   114f0:	2705                	c.addiw	a4,1
   114f2:	0007069b          	addiw	a3,a4,0
   114f6:	10e12c23          	sw	a4,280(sp)
   114fa:	f23e                	c.sdsp	a5,288(sp)
   114fc:	471d                	c.li	a4,7
   114fe:	c4d74363          	blt	a4,a3,10944 <_vfprintf_r+0x65e>
   11502:	0341                	c.addi	t1,16
   11504:	c60ff06f          	jal	zero,10964 <_vfprintf_r+0x67e>
   11508:	66c2                	c.ldsp	a3,16(sp)
   1150a:	0404f793          	andi	a5,s1,64
   1150e:	0006a903          	lw	s2,0(a3)
   11512:	c7f1                	c.beqz	a5,115de <_vfprintf_r+0x12f8>
   11514:	1942                	c.slli	s2,0x30
   11516:	03095913          	srli	s2,s2,0x30
   1151a:	bdb5                	c.j	11396 <_vfprintf_r+0x10b0>
   1151c:	0a10                	c.addi4spn	a2,sp,272
   1151e:	85ce                	c.mv	a1,s3
   11520:	8552                	c.mv	a0,s4
   11522:	0b9060ef          	jal	ra,17dda <__sprint_r>
   11526:	940518e3          	bne	a0,zero,10e76 <_vfprintf_r+0xb90>
   1152a:	7792                	c.ldsp	a5,288(sp)
   1152c:	835a                	c.mv	t1,s6
   1152e:	fa2ff06f          	jal	zero,10cd0 <_vfprintf_r+0x9ea>
   11532:	0017069b          	addiw	a3,a4,1
   11536:	8736                	c.mv	a4,a3
   11538:	97de                	c.add	a5,s7
   1153a:	01b33023          	sd	s11,0(t1)
   1153e:	808ff06f          	jal	zero,10546 <_vfprintf_r+0x260>
   11542:	6512                	c.ldsp	a0,256(sp)
   11544:	65b2                	c.ldsp	a1,264(sp)
   11546:	4601                	c.li	a2,0
   11548:	4681                	c.li	a3,0
   1154a:	113090ef          	jal	ra,1ae5c <__letf2>
   1154e:	6362                	c.ldsp	t1,24(sp)
   11550:	52054163          	blt	a0,zero,11a72 <_vfprintf_r+0x178c>
   11554:	0df14783          	lbu	a5,223(sp)
   11558:	04700713          	addi	a4,zero,71
   1155c:	27975263          	bge	a4,s9,117c0 <_vfprintf_r+0x14da>
   11560:	6871                	c.lui	a6,0x1c
   11562:	15880d13          	addi	s10,a6,344 # 1c158 <__clzdi2+0x46>
   11566:	f7f4f493          	andi	s1,s1,-129
   1156a:	ec02                	c.sdsp	zero,24(sp)
   1156c:	e482                	c.sdsp	zero,72(sp)
   1156e:	ec82                	c.sdsp	zero,88(sp)
   11570:	e882                	c.sdsp	zero,80(sp)
   11572:	2481                	c.addiw	s1,0
   11574:	490d                	c.li	s2,3
   11576:	4b8d                	c.li	s7,3
   11578:	4c01                	c.li	s8,0
   1157a:	90079163          	bne	a5,zero,1067c <_vfprintf_r+0x396>
   1157e:	f2bfe06f          	jal	zero,104a8 <_vfprintf_r+0x1c2>
   11582:	856a                	c.mv	a0,s10
   11584:	f81a                	c.sdsp	t1,48(sp)
   11586:	34f040ef          	jal	ra,160d4 <strlen>
   1158a:	00050b9b          	addiw	s7,a0,0
   1158e:	fffbc913          	xori	s2,s7,-1
   11592:	0df14783          	lbu	a5,223(sp)
   11596:	43f95913          	srai	s2,s2,0x3f
   1159a:	012bf933          	and	s2,s7,s2
   1159e:	e86e                	c.sdsp	s11,16(sp)
   115a0:	ec02                	c.sdsp	zero,24(sp)
   115a2:	e482                	c.sdsp	zero,72(sp)
   115a4:	ec82                	c.sdsp	zero,88(sp)
   115a6:	e882                	c.sdsp	zero,80(sp)
   115a8:	7342                	c.ldsp	t1,48(sp)
   115aa:	2901                	c.addiw	s2,0
   115ac:	4c01                	c.li	s8,0
   115ae:	8c079763          	bne	a5,zero,1067c <_vfprintf_r+0x396>
   115b2:	ef7fe06f          	jal	zero,104a8 <_vfprintf_r+0x1c2>
   115b6:	200df793          	andi	a5,s11,512
   115ba:	26078163          	beq	a5,zero,1181c <_vfprintf_r+0x1536>
   115be:	0ff97913          	andi	s2,s2,255
   115c2:	e83a                	c.sdsp	a4,16(sp)
   115c4:	4785                	c.li	a5,1
   115c6:	8deff06f          	jal	zero,106a4 <_vfprintf_r+0x3be>
   115ca:	2004f793          	andi	a5,s1,512
   115ce:	24078163          	beq	a5,zero,11810 <_vfprintf_r+0x152a>
   115d2:	67c2                	c.ldsp	a5,16(sp)
   115d4:	00078903          	lb	s2,0(a5)
   115d8:	87ca                	c.mv	a5,s2
   115da:	860ff06f          	jal	zero,1063a <_vfprintf_r+0x354>
   115de:	2004f793          	andi	a5,s1,512
   115e2:	24078463          	beq	a5,zero,1182a <_vfprintf_r+0x1544>
   115e6:	0ff97913          	andi	s2,s2,255
   115ea:	b375                	c.j	11396 <_vfprintf_r+0x10b0>
   115ec:	2004f793          	andi	a5,s1,512
   115f0:	20078b63          	beq	a5,zero,11806 <_vfprintf_r+0x1520>
   115f4:	0ff97913          	andi	s2,s2,255
   115f8:	8a0ff06f          	jal	zero,10698 <_vfprintf_r+0x3b2>
   115fc:	67b2                	c.ldsp	a5,264(sp)
   115fe:	2207ca63          	blt	a5,zero,11832 <_vfprintf_r+0x154c>
   11602:	0df14783          	lbu	a5,223(sp)
   11606:	04700713          	addi	a4,zero,71
   1160a:	59975863          	bge	a4,s9,11b9a <_vfprintf_r+0x18b4>
   1160e:	6871                	c.lui	a6,0x1c
   11610:	16880d13          	addi	s10,a6,360 # 1c168 <__clzdi2+0x56>
   11614:	bf89                	c.j	11566 <_vfprintf_r+0x1280>
   11616:	0017069b          	addiw	a3,a4,1
   1161a:	97de                	c.add	a5,s7
   1161c:	01b33023          	sd	s11,0(t1)
   11620:	01733423          	sd	s7,8(t1)
   11624:	f23e                	c.sdsp	a5,288(sp)
   11626:	10d12c23          	sw	a3,280(sp)
   1162a:	471d                	c.li	a4,7
   1162c:	0341                	c.addi	t1,16
   1162e:	aad75ce3          	bge	a4,a3,110e6 <_vfprintf_r+0xe00>
   11632:	0a10                	c.addi4spn	a2,sp,272
   11634:	85ce                	c.mv	a1,s3
   11636:	8552                	c.mv	a0,s4
   11638:	7a2060ef          	jal	ra,17dda <__sprint_r>
   1163c:	82051de3          	bne	a0,zero,10e76 <_vfprintf_r+0xb90>
   11640:	7792                	c.ldsp	a5,288(sp)
   11642:	835a                	c.mv	t1,s6
   11644:	b44d                	c.j	110e6 <_vfprintf_r+0xe00>
   11646:	7702                	c.ldsp	a4,32(sp)
   11648:	6ef1                	c.lui	t4,0x1c
   1164a:	4b9d                	c.li	s7,7
   1164c:	976a                	c.add	a4,s10
   1164e:	fc3a                	c.sdsp	a4,56(sp)
   11650:	6766                	c.ldsp	a4,88(sp)
   11652:	4dc1                	c.li	s11,16
   11654:	330e8c93          	addi	s9,t4,816 # 1c330 <zeroes.4521>
   11658:	cb51                	c.beqz	a4,116ec <_vfprintf_r+0x1406>
   1165a:	6726                	c.ldsp	a4,72(sp)
   1165c:	eb59                	c.bnez	a4,116f2 <_vfprintf_r+0x140c>
   1165e:	7706                	c.ldsp	a4,96(sp)
   11660:	177d                	c.addi	a4,-1
   11662:	f0ba                	c.sdsp	a4,96(sp)
   11664:	6766                	c.ldsp	a4,88(sp)
   11666:	377d                	c.addiw	a4,-1
   11668:	ecba                	c.sdsp	a4,88(sp)
   1166a:	672a                	c.ldsp	a4,136(sp)
   1166c:	668a                	c.ldsp	a3,128(sp)
   1166e:	0341                	c.addi	t1,16
   11670:	fee33823          	sd	a4,-16(t1)
   11674:	11812703          	lw	a4,280(sp)
   11678:	97b6                	c.add	a5,a3
   1167a:	fed33c23          	sd	a3,-8(t1)
   1167e:	2705                	c.addiw	a4,1
   11680:	f23e                	c.sdsp	a5,288(sp)
   11682:	0007069b          	addiw	a3,a4,0
   11686:	10e12c23          	sw	a4,280(sp)
   1168a:	0cdbcf63          	blt	s7,a3,11768 <_vfprintf_r+0x1482>
   1168e:	7706                	c.ldsp	a4,96(sp)
   11690:	00074583          	lbu	a1,0(a4)
   11694:	7762                	c.ldsp	a4,56(sp)
   11696:	0005869b          	addiw	a3,a1,0
   1169a:	4187063b          	subw	a2,a4,s8
   1169e:	0006871b          	addiw	a4,a3,0
   116a2:	00d65463          	bge	a2,a3,116aa <_vfprintf_r+0x13c4>
   116a6:	0006071b          	addiw	a4,a2,0
   116aa:	02e05663          	bge	zero,a4,116d6 <_vfprintf_r+0x13f0>
   116ae:	11812683          	lw	a3,280(sp)
   116b2:	97ba                	c.add	a5,a4
   116b4:	01833023          	sd	s8,0(t1)
   116b8:	0016861b          	addiw	a2,a3,1
   116bc:	00e33423          	sd	a4,8(t1)
   116c0:	f23e                	c.sdsp	a5,288(sp)
   116c2:	10c12c23          	sw	a2,280(sp)
   116c6:	0acbcb63          	blt	s7,a2,1177c <_vfprintf_r+0x1496>
   116ca:	7686                	c.ldsp	a3,96(sp)
   116cc:	0341                	c.addi	t1,16
   116ce:	0006c583          	lbu	a1,0(a3)
   116d2:	0005869b          	addiw	a3,a1,0
   116d6:	fff74613          	xori	a2,a4,-1
   116da:	967d                	c.srai	a2,0x3f
   116dc:	8f71                	c.and	a4,a2
   116de:	40e6873b          	subw	a4,a3,a4
   116e2:	00e04c63          	blt	zero,a4,116fa <_vfprintf_r+0x1414>
   116e6:	9c2e                	c.add	s8,a1
   116e8:	6766                	c.ldsp	a4,88(sp)
   116ea:	fb25                	c.bnez	a4,1165a <_vfprintf_r+0x1374>
   116ec:	6726                	c.ldsp	a4,72(sp)
   116ee:	2c070363          	beq	a4,zero,119b4 <_vfprintf_r+0x16ce>
   116f2:	6726                	c.ldsp	a4,72(sp)
   116f4:	377d                	c.addiw	a4,-1
   116f6:	e4ba                	c.sdsp	a4,72(sp)
   116f8:	bf8d                	c.j	1166a <_vfprintf_r+0x1384>
   116fa:	11812683          	lw	a3,280(sp)
   116fe:	00edc663          	blt	s11,a4,1170a <_vfprintf_r+0x1424>
   11702:	a081                	c.j	11742 <_vfprintf_r+0x145c>
   11704:	3741                	c.addiw	a4,-16
   11706:	02edde63          	bge	s11,a4,11742 <_vfprintf_r+0x145c>
   1170a:	2685                	c.addiw	a3,1
   1170c:	07c1                	c.addi	a5,16
   1170e:	01933023          	sd	s9,0(t1)
   11712:	01b33423          	sd	s11,8(t1)
   11716:	f23e                	c.sdsp	a5,288(sp)
   11718:	10d12c23          	sw	a3,280(sp)
   1171c:	0341                	c.addi	t1,16
   1171e:	fedbd3e3          	bge	s7,a3,11704 <_vfprintf_r+0x141e>
   11722:	0a10                	c.addi4spn	a2,sp,272
   11724:	85ce                	c.mv	a1,s3
   11726:	8552                	c.mv	a0,s4
   11728:	f83a                	c.sdsp	a4,48(sp)
   1172a:	6b0060ef          	jal	ra,17dda <__sprint_r>
   1172e:	f4051463          	bne	a0,zero,10e76 <_vfprintf_r+0xb90>
   11732:	7742                	c.ldsp	a4,48(sp)
   11734:	7792                	c.ldsp	a5,288(sp)
   11736:	11812683          	lw	a3,280(sp)
   1173a:	3741                	c.addiw	a4,-16
   1173c:	835a                	c.mv	t1,s6
   1173e:	fcedc6e3          	blt	s11,a4,1170a <_vfprintf_r+0x1424>
   11742:	2685                	c.addiw	a3,1
   11744:	97ba                	c.add	a5,a4
   11746:	00e33423          	sd	a4,8(t1)
   1174a:	01933023          	sd	s9,0(t1)
   1174e:	f23e                	c.sdsp	a5,288(sp)
   11750:	0006871b          	addiw	a4,a3,0
   11754:	10d12c23          	sw	a3,280(sp)
   11758:	2eebc363          	blt	s7,a4,11a3e <_vfprintf_r+0x1758>
   1175c:	7706                	c.ldsp	a4,96(sp)
   1175e:	0341                	c.addi	t1,16
   11760:	00074583          	lbu	a1,0(a4)
   11764:	9c2e                	c.add	s8,a1
   11766:	b749                	c.j	116e8 <_vfprintf_r+0x1402>
   11768:	0a10                	c.addi4spn	a2,sp,272
   1176a:	85ce                	c.mv	a1,s3
   1176c:	8552                	c.mv	a0,s4
   1176e:	66c060ef          	jal	ra,17dda <__sprint_r>
   11772:	f0051263          	bne	a0,zero,10e76 <_vfprintf_r+0xb90>
   11776:	7792                	c.ldsp	a5,288(sp)
   11778:	835a                	c.mv	t1,s6
   1177a:	bf11                	c.j	1168e <_vfprintf_r+0x13a8>
   1177c:	0a10                	c.addi4spn	a2,sp,272
   1177e:	85ce                	c.mv	a1,s3
   11780:	8552                	c.mv	a0,s4
   11782:	f83a                	c.sdsp	a4,48(sp)
   11784:	656060ef          	jal	ra,17dda <__sprint_r>
   11788:	ee051763          	bne	a0,zero,10e76 <_vfprintf_r+0xb90>
   1178c:	7786                	c.ldsp	a5,96(sp)
   1178e:	7742                	c.ldsp	a4,48(sp)
   11790:	835a                	c.mv	t1,s6
   11792:	0007c583          	lbu	a1,0(a5)
   11796:	7792                	c.ldsp	a5,288(sp)
   11798:	0005869b          	addiw	a3,a1,0
   1179c:	bf2d                	c.j	116d6 <_vfprintf_r+0x13f0>
   1179e:	2605                	c.addiw	a2,1
   117a0:	01070313          	addi	t1,a4,16
   117a4:	8bba                	c.mv	s7,a4
   117a6:	f86ff06f          	jal	zero,10f2c <_vfprintf_r+0xc46>
   117aa:	0a10                	c.addi4spn	a2,sp,272
   117ac:	85ce                	c.mv	a1,s3
   117ae:	8552                	c.mv	a0,s4
   117b0:	62a060ef          	jal	ra,17dda <__sprint_r>
   117b4:	ec051163          	bne	a0,zero,10e76 <_vfprintf_r+0xb90>
   117b8:	562e                	c.lwsp	a2,232(sp)
   117ba:	7792                	c.ldsp	a5,288(sp)
   117bc:	835a                	c.mv	t1,s6
   117be:	b339                	c.j	114cc <_vfprintf_r+0x11e6>
   117c0:	6871                	c.lui	a6,0x1c
   117c2:	15080d13          	addi	s10,a6,336 # 1c150 <__clzdi2+0x3e>
   117c6:	b345                	c.j	11566 <_vfprintf_r+0x1280>
   117c8:	0a10                	c.addi4spn	a2,sp,272
   117ca:	85ce                	c.mv	a1,s3
   117cc:	8552                	c.mv	a0,s4
   117ce:	60c060ef          	jal	ra,17dda <__sprint_r>
   117d2:	ea051263          	bne	a0,zero,10e76 <_vfprintf_r+0xb90>
   117d6:	7792                	c.ldsp	a5,288(sp)
   117d8:	835a                	c.mv	t1,s6
   117da:	b8e5                	c.j	110d2 <_vfprintf_r+0xdec>
   117dc:	4b99                	c.li	s7,6
   117de:	b135                	c.j	1140a <_vfprintf_r+0x1124>
   117e0:	7682                	c.ldsp	a3,32(sp)
   117e2:	00dd0833          	add	a6,s10,a3
   117e6:	40e6863b          	subw	a2,a3,a4
   117ea:	41880f3b          	subw	t5,a6,s8
   117ee:	8bb2                	c.mv	s7,a2
   117f0:	96cf5be3          	bge	t5,a2,11166 <_vfprintf_r+0xe80>
   117f4:	000f0b9b          	addiw	s7,t5,0
   117f8:	b2bd                	c.j	11166 <_vfprintf_r+0xe80>
   117fa:	67a2                	c.ldsp	a5,8(sp)
   117fc:	8d22                	c.mv	s10,s0
   117fe:	00f71023          	sh	a5,0(a4)
   11802:	d89fe06f          	jal	zero,1058a <_vfprintf_r+0x2a4>
   11806:	1902                	c.slli	s2,0x20
   11808:	02095913          	srli	s2,s2,0x20
   1180c:	e8dfe06f          	jal	zero,10698 <_vfprintf_r+0x3b2>
   11810:	67c2                	c.ldsp	a5,16(sp)
   11812:	0007a903          	lw	s2,0(a5)
   11816:	87ca                	c.mv	a5,s2
   11818:	e23fe06f          	jal	zero,1063a <_vfprintf_r+0x354>
   1181c:	1902                	c.slli	s2,0x20
   1181e:	02095913          	srli	s2,s2,0x20
   11822:	e83a                	c.sdsp	a4,16(sp)
   11824:	4785                	c.li	a5,1
   11826:	e7ffe06f          	jal	zero,106a4 <_vfprintf_r+0x3be>
   1182a:	1902                	c.slli	s2,0x20
   1182c:	02095913          	srli	s2,s2,0x20
   11830:	b69d                	c.j	11396 <_vfprintf_r+0x10b0>
   11832:	02d00793          	addi	a5,zero,45
   11836:	0cf10fa3          	sb	a5,223(sp)
   1183a:	b3f1                	c.j	11606 <_vfprintf_r+0x1320>
   1183c:	0a10                	c.addi4spn	a2,sp,272
   1183e:	85ce                	c.mv	a1,s3
   11840:	8552                	c.mv	a0,s4
   11842:	598060ef          	jal	ra,17dda <__sprint_r>
   11846:	d55fe06f          	jal	zero,1059a <_vfprintf_r+0x2b4>
   1184a:	03000793          	addi	a5,zero,48
   1184e:	0ef10023          	sb	a5,224(sp)
   11852:	05800713          	addi	a4,zero,88
   11856:	0024e793          	ori	a5,s1,2
   1185a:	2781                	c.addiw	a5,0
   1185c:	0ee100a3          	sb	a4,225(sp)
   11860:	f53e                	c.sdsp	a5,168(sp)
   11862:	06300713          	addi	a4,zero,99
   11866:	ec02                	c.sdsp	zero,24(sp)
   11868:	12810d13          	addi	s10,sp,296
   1186c:	39874563          	blt	a4,s8,11bf6 <_vfprintf_r+0x1910>
   11870:	6bb2                	c.ldsp	s7,264(sp)
   11872:	fdfcf713          	andi	a4,s9,-33
   11876:	1024e493          	ori	s1,s1,258
   1187a:	ecba                	c.sdsp	a4,88(sp)
   1187c:	e582                	c.sdsp	zero,200(sp)
   1187e:	6d92                	c.ldsp	s11,256(sp)
   11880:	2481                	c.addiw	s1,0
   11882:	1a0bc663          	blt	s7,zero,11a2e <_vfprintf_r+0x1748>
   11886:	06100793          	addi	a5,zero,97
   1188a:	4efc8763          	beq	s9,a5,11d78 <_vfprintf_r+0x1a92>
   1188e:	04100793          	addi	a5,zero,65
   11892:	00fc8463          	beq	s9,a5,1189a <_vfprintf_r+0x15b4>
   11896:	ee5fe06f          	jal	zero,1077a <_vfprintf_r+0x494>
   1189a:	85de                	c.mv	a1,s7
   1189c:	856e                	c.mv	a0,s11
   1189e:	fc1a                	c.sdsp	t1,56(sp)
   118a0:	6420a0ef          	jal	ra,1bee2 <__trunctfdf2>
   118a4:	11a8                	c.addi4spn	a0,sp,232
   118a6:	578040ef          	jal	ra,15e1e <frexp>
   118aa:	5780a0ef          	jal	ra,1be22 <__extenddftf2>
   118ae:	00fff7b7          	lui	a5,0xfff
   118b2:	02679693          	slli	a3,a5,0x26
   118b6:	4601                	c.li	a2,0
   118b8:	64c090ef          	jal	ra,1af04 <__multf3>
   118bc:	4601                	c.li	a2,0
   118be:	4681                	c.li	a3,0
   118c0:	f82a                	c.sdsp	a0,48(sp)
   118c2:	f02e                	c.sdsp	a1,32(sp)
   118c4:	45c090ef          	jal	ra,1ad20 <__eqtf2>
   118c8:	7f82                	c.ldsp	t6,32(sp)
   118ca:	7f42                	c.ldsp	t5,48(sp)
   118cc:	7362                	c.ldsp	t1,56(sp)
   118ce:	e119                	c.bnez	a0,118d4 <_vfprintf_r+0x15ee>
   118d0:	4785                	c.li	a5,1
   118d2:	d5be                	c.swsp	a5,232(sp)
   118d4:	6bf1                	c.lui	s7,0x1c
   118d6:	170b8793          	addi	a5,s7,368 # 1c170 <__clzdi2+0x5e>
   118da:	e4be                	c.sdsp	a5,72(sp)
   118dc:	020c1793          	slli	a5,s8,0x20
   118e0:	9381                	c.srli	a5,0x20
   118e2:	0785                	c.addi	a5,1
   118e4:	97ea                	c.add	a5,s10
   118e6:	f93e                	c.sdsp	a5,176(sp)
   118e8:	018d07bb          	addw	a5,s10,s8
   118ec:	8dea                	c.mv	s11,s10
   118ee:	c3be                	c.swsp	a5,196(sp)
   118f0:	a819                	c.j	11906 <_vfprintf_r+0x1620>
   118f2:	4601                	c.li	a2,0
   118f4:	4681                	c.li	a3,0
   118f6:	e0aa                	c.sdsp	a0,64(sp)
   118f8:	428090ef          	jal	ra,1ad20 <__eqtf2>
   118fc:	7342                	c.ldsp	t1,48(sp)
   118fe:	6886                	c.ldsp	a7,64(sp)
   11900:	7f82                	c.ldsp	t6,32(sp)
   11902:	7f62                	c.ldsp	t5,56(sp)
   11904:	cd31                	c.beqz	a0,11960 <_vfprintf_r+0x167a>
   11906:	66ca                	c.ldsp	a3,144(sp)
   11908:	4601                	c.li	a2,0
   1190a:	857a                	c.mv	a0,t5
   1190c:	85fe                	c.mv	a1,t6
   1190e:	f81a                	c.sdsp	t1,48(sp)
   11910:	5f4090ef          	jal	ra,1af04 <__multf3>
   11914:	8bae                	c.mv	s7,a1
   11916:	f02a                	c.sdsp	a0,32(sp)
   11918:	4180a0ef          	jal	ra,1bd30 <__fixtfsi>
   1191c:	0005091b          	addiw	s2,a0,0
   11920:	854a                	c.mv	a0,s2
   11922:	4a60a0ef          	jal	ra,1bdc8 <__floatsitf>
   11926:	7782                	c.ldsp	a5,32(sp)
   11928:	86ae                	c.mv	a3,a1
   1192a:	862a                	c.mv	a2,a0
   1192c:	85de                	c.mv	a1,s7
   1192e:	853e                	c.mv	a0,a5
   11930:	3e9090ef          	jal	ra,1b518 <__subtf3>
   11934:	67a6                	c.ldsp	a5,72(sp)
   11936:	fd6e                	c.sdsp	s11,184(sp)
   11938:	0d85                	c.addi	s11,1
   1193a:	97ca                	c.add	a5,s2
   1193c:	0007c683          	lbu	a3,0(a5) # fff000 <__BSS_END__+0xfe0df8>
   11940:	479e                	c.lwsp	a5,196(sp)
   11942:	fc2a                	c.sdsp	a0,56(sp)
   11944:	fedd8fa3          	sb	a3,-1(s11)
   11948:	41b787bb          	subw	a5,a5,s11
   1194c:	e8be                	c.sdsp	a5,80(sp)
   1194e:	77ca                	c.ldsp	a5,176(sp)
   11950:	f02e                	c.sdsp	a1,32(sp)
   11952:	7342                	c.ldsp	t1,48(sp)
   11954:	88aa                	c.mv	a7,a0
   11956:	8bae                	c.mv	s7,a1
   11958:	f9b79de3          	bne	a5,s11,118f2 <_vfprintf_r+0x160c>
   1195c:	57fd                	c.li	a5,-1
   1195e:	e8be                	c.sdsp	a5,80(sp)
   11960:	66ea                	c.ldsp	a3,152(sp)
   11962:	4601                	c.li	a2,0
   11964:	8546                	c.mv	a0,a7
   11966:	85de                	c.mv	a1,s7
   11968:	f01a                	c.sdsp	t1,32(sp)
   1196a:	f846                	c.sdsp	a7,48(sp)
   1196c:	448090ef          	jal	ra,1adb4 <__getf2>
   11970:	7302                	c.ldsp	t1,32(sp)
   11972:	2ca04763          	blt	zero,a0,11c40 <_vfprintf_r+0x195a>
   11976:	78c2                	c.ldsp	a7,48(sp)
   11978:	66ea                	c.ldsp	a3,152(sp)
   1197a:	4601                	c.li	a2,0
   1197c:	8546                	c.mv	a0,a7
   1197e:	85de                	c.mv	a1,s7
   11980:	3a0090ef          	jal	ra,1ad20 <__eqtf2>
   11984:	7302                	c.ldsp	t1,32(sp)
   11986:	e509                	c.bnez	a0,11990 <_vfprintf_r+0x16aa>
   11988:	00197913          	andi	s2,s2,1
   1198c:	2a091a63          	bne	s2,zero,11c40 <_vfprintf_r+0x195a>
   11990:	6746                	c.ldsp	a4,80(sp)
   11992:	03000693          	addi	a3,zero,48
   11996:	00170793          	addi	a5,a4,1
   1199a:	97ee                	c.add	a5,s11
   1199c:	00074763          	blt	a4,zero,119aa <_vfprintf_r+0x16c4>
   119a0:	0d85                	c.addi	s11,1
   119a2:	fedd8fa3          	sb	a3,-1(s11)
   119a6:	ffb79de3          	bne	a5,s11,119a0 <_vfprintf_r+0x16ba>
   119aa:	41ad87bb          	subw	a5,s11,s10
   119ae:	f03e                	c.sdsp	a5,32(sp)
   119b0:	e3ffe06f          	jal	zero,107ee <_vfprintf_r+0x508>
   119b4:	7702                	c.ldsp	a4,32(sp)
   119b6:	976a                	c.add	a4,s10
   119b8:	f3877e63          	bgeu	a4,s8,110f4 <_vfprintf_r+0xe0e>
   119bc:	8c3a                	c.mv	s8,a4
   119be:	f36ff06f          	jal	zero,110f4 <_vfprintf_r+0xe0e>
   119c2:	6746                	c.ldsp	a4,80(sp)
   119c4:	57f5                	c.li	a5,-3
   119c6:	00f74463          	blt	a4,a5,119ce <_vfprintf_r+0x16e8>
   119ca:	00ec5863          	bge	s8,a4,119da <_vfprintf_r+0x16f4>
   119ce:	3cf9                	c.addiw	s9,-2
   119d0:	fdfcf793          	andi	a5,s9,-33
   119d4:	ecbe                	c.sdsp	a5,88(sp)
   119d6:	e39fe06f          	jal	zero,1080e <_vfprintf_r+0x528>
   119da:	7782                	c.ldsp	a5,32(sp)
   119dc:	6746                	c.ldsp	a4,80(sp)
   119de:	16f74b63          	blt	a4,a5,11b54 <_vfprintf_r+0x186e>
   119e2:	77aa                	c.ldsp	a5,168(sp)
   119e4:	8bba                	c.mv	s7,a4
   119e6:	8b85                	c.andi	a5,1
   119e8:	c781                	c.beqz	a5,119f0 <_vfprintf_r+0x170a>
   119ea:	77a6                	c.ldsp	a5,104(sp)
   119ec:	00e78bbb          	addw	s7,a5,a4
   119f0:	77aa                	c.ldsp	a5,168(sp)
   119f2:	4007f793          	andi	a5,a5,1024
   119f6:	c781                	c.beqz	a5,119fe <_vfprintf_r+0x1718>
   119f8:	67c6                	c.ldsp	a5,80(sp)
   119fa:	30f04363          	blt	zero,a5,11d00 <_vfprintf_r+0x1a1a>
   119fe:	fffbc913          	xori	s2,s7,-1
   11a02:	43f95913          	srai	s2,s2,0x3f
   11a06:	012bf933          	and	s2,s7,s2
   11a0a:	2901                	c.addiw	s2,0
   11a0c:	06700c93          	addi	s9,zero,103
   11a10:	e482                	c.sdsp	zero,72(sp)
   11a12:	ec82                	c.sdsp	zero,88(sp)
   11a14:	eddfe06f          	jal	zero,108f0 <_vfprintf_r+0x60a>
   11a18:	0df14783          	lbu	a5,223(sp)
   11a1c:	4c01                	c.li	s8,0
   11a1e:	c399                	c.beqz	a5,11a24 <_vfprintf_r+0x173e>
   11a20:	c5dfe06f          	jal	zero,1067c <_vfprintf_r+0x396>
   11a24:	a85fe06f          	jal	zero,104a8 <_vfprintf_r+0x1c2>
   11a28:	f526                	c.sdsp	s1,168(sp)
   11a2a:	ec02                	c.sdsp	zero,24(sp)
   11a2c:	84ca                	c.mv	s1,s2
   11a2e:	57fd                	c.li	a5,-1
   11a30:	17fe                	c.slli	a5,0x3f
   11a32:	00fbcbb3          	xor	s7,s7,a5
   11a36:	02d00793          	addi	a5,zero,45
   11a3a:	e5be                	c.sdsp	a5,200(sp)
   11a3c:	b5a9                	c.j	11886 <_vfprintf_r+0x15a0>
   11a3e:	0a10                	c.addi4spn	a2,sp,272
   11a40:	85ce                	c.mv	a1,s3
   11a42:	8552                	c.mv	a0,s4
   11a44:	396060ef          	jal	ra,17dda <__sprint_r>
   11a48:	c2051763          	bne	a0,zero,10e76 <_vfprintf_r+0xb90>
   11a4c:	7786                	c.ldsp	a5,96(sp)
   11a4e:	835a                	c.mv	t1,s6
   11a50:	0007c583          	lbu	a1,0(a5)
   11a54:	7792                	c.ldsp	a5,288(sp)
   11a56:	9c2e                	c.add	s8,a1
   11a58:	b941                	c.j	116e8 <_vfprintf_r+0x1402>
   11a5a:	0a10                	c.addi4spn	a2,sp,272
   11a5c:	85ce                	c.mv	a1,s3
   11a5e:	8552                	c.mv	a0,s4
   11a60:	37a060ef          	jal	ra,17dda <__sprint_r>
   11a64:	c0051963          	bne	a0,zero,10e76 <_vfprintf_r+0xb90>
   11a68:	572e                	c.lwsp	a4,232(sp)
   11a6a:	7792                	c.ldsp	a5,288(sp)
   11a6c:	835a                	c.mv	t1,s6
   11a6e:	ebcff06f          	jal	zero,1112a <_vfprintf_r+0xe44>
   11a72:	02d00793          	addi	a5,zero,45
   11a76:	0cf10fa3          	sb	a5,223(sp)
   11a7a:	bcf9                	c.j	11558 <_vfprintf_r+0x1272>
   11a7c:	11bc                	c.addi4spn	a5,sp,232
   11a7e:	8762                	c.mv	a4,s8
   11a80:	0f810893          	addi	a7,sp,248
   11a84:	0ec10813          	addi	a6,sp,236
   11a88:	4689                	c.li	a3,2
   11a8a:	85ee                	c.mv	a1,s11
   11a8c:	865e                	c.mv	a2,s7
   11a8e:	8552                	c.mv	a0,s4
   11a90:	0f6020ef          	jal	ra,13b86 <_ldtoa_r>
   11a94:	6766                	c.ldsp	a4,88(sp)
   11a96:	04700793          	addi	a5,zero,71
   11a9a:	7302                	c.ldsp	t1,32(sp)
   11a9c:	8d2a                	c.mv	s10,a0
   11a9e:	02f71b63          	bne	a4,a5,11ad4 <_vfprintf_r+0x17ee>
   11aa2:	77aa                	c.ldsp	a5,168(sp)
   11aa4:	8b85                	c.andi	a5,1
   11aa6:	1e079b63          	bne	a5,zero,11c9c <_vfprintf_r+0x19b6>
   11aaa:	04700793          	addi	a5,zero,71
   11aae:	76ee                	c.ldsp	a3,248(sp)
   11ab0:	ecbe                	c.sdsp	a5,88(sp)
   11ab2:	d37fe06f          	jal	zero,107e8 <_vfprintf_r+0x502>
   11ab6:	0f810893          	addi	a7,sp,248
   11aba:	0ec10813          	addi	a6,sp,236
   11abe:	11bc                	c.addi4spn	a5,sp,232
   11ac0:	8762                	c.mv	a4,s8
   11ac2:	468d                	c.li	a3,3
   11ac4:	85ee                	c.mv	a1,s11
   11ac6:	865e                	c.mv	a2,s7
   11ac8:	8552                	c.mv	a0,s4
   11aca:	f01a                	c.sdsp	t1,32(sp)
   11acc:	0ba020ef          	jal	ra,13b86 <_ldtoa_r>
   11ad0:	7302                	c.ldsp	t1,32(sp)
   11ad2:	8d2a                	c.mv	s10,a0
   11ad4:	6766                	c.ldsp	a4,88(sp)
   11ad6:	04600793          	addi	a5,zero,70
   11ada:	018d0933          	add	s2,s10,s8
   11ade:	00f70463          	beq	a4,a5,11ae6 <_vfprintf_r+0x1800>
   11ae2:	cd9fe06f          	jal	zero,107ba <_vfprintf_r+0x4d4>
   11ae6:	000d4703          	lbu	a4,0(s10)
   11aea:	03000793          	addi	a5,zero,48
   11aee:	00f70663          	beq	a4,a5,11afa <_vfprintf_r+0x1814>
   11af2:	572e                	c.lwsp	a4,232(sp)
   11af4:	993a                	c.add	s2,a4
   11af6:	cc5fe06f          	jal	zero,107ba <_vfprintf_r+0x4d4>
   11afa:	4601                	c.li	a2,0
   11afc:	4681                	c.li	a3,0
   11afe:	856e                	c.mv	a0,s11
   11b00:	85de                	c.mv	a1,s7
   11b02:	f01a                	c.sdsp	t1,32(sp)
   11b04:	21c090ef          	jal	ra,1ad20 <__eqtf2>
   11b08:	7302                	c.ldsp	t1,32(sp)
   11b0a:	d565                	c.beqz	a0,11af2 <_vfprintf_r+0x180c>
   11b0c:	4785                	c.li	a5,1
   11b0e:	4187873b          	subw	a4,a5,s8
   11b12:	d5ba                	c.swsp	a4,232(sp)
   11b14:	993a                	c.add	s2,a4
   11b16:	ca5fe06f          	jal	zero,107ba <_vfprintf_r+0x4d4>
   11b1a:	0df14783          	lbu	a5,223(sp)
   11b1e:	e86e                	c.sdsp	s11,16(sp)
   11b20:	e482                	c.sdsp	zero,72(sp)
   11b22:	ec82                	c.sdsp	zero,88(sp)
   11b24:	e882                	c.sdsp	zero,80(sp)
   11b26:	8962                	c.mv	s2,s8
   11b28:	8be2                	c.mv	s7,s8
   11b2a:	4c01                	c.li	s8,0
   11b2c:	c399                	c.beqz	a5,11b32 <_vfprintf_r+0x184c>
   11b2e:	b4ffe06f          	jal	zero,1067c <_vfprintf_r+0x396>
   11b32:	977fe06f          	jal	zero,104a8 <_vfprintf_r+0x1c2>
   11b36:	0a10                	c.addi4spn	a2,sp,272
   11b38:	85ce                	c.mv	a1,s3
   11b3a:	8552                	c.mv	a0,s4
   11b3c:	29e060ef          	jal	ra,17dda <__sprint_r>
   11b40:	b2051b63          	bne	a0,zero,10e76 <_vfprintf_r+0xb90>
   11b44:	562e                	c.lwsp	a2,232(sp)
   11b46:	7702                	c.ldsp	a4,32(sp)
   11b48:	7792                	c.ldsp	a5,288(sp)
   11b4a:	835a                	c.mv	t1,s6
   11b4c:	40c7063b          	subw	a2,a4,a2
   11b50:	e16ff06f          	jal	zero,11166 <_vfprintf_r+0xe80>
   11b54:	7702                	c.ldsp	a4,32(sp)
   11b56:	77a6                	c.ldsp	a5,104(sp)
   11b58:	06700c93          	addi	s9,zero,103
   11b5c:	00e78bbb          	addw	s7,a5,a4
   11b60:	6746                	c.ldsp	a4,80(sp)
   11b62:	28e05e63          	bge	zero,a4,11dfe <_vfprintf_r+0x1b18>
   11b66:	77aa                	c.ldsp	a5,168(sp)
   11b68:	4007f793          	andi	a5,a5,1024
   11b6c:	18079c63          	bne	a5,zero,11d04 <_vfprintf_r+0x1a1e>
   11b70:	fffbc913          	xori	s2,s7,-1
   11b74:	43f95913          	srai	s2,s2,0x3f
   11b78:	012bf933          	and	s2,s7,s2
   11b7c:	2901                	c.addiw	s2,0
   11b7e:	bd49                	c.j	11a10 <_vfprintf_r+0x172a>
   11b80:	77aa                	c.ldsp	a5,168(sp)
   11b82:	6746                	c.ldsp	a4,80(sp)
   11b84:	8b85                	c.andi	a5,1
   11b86:	00fc67b3          	or	a5,s8,a5
   11b8a:	28e05863          	bge	zero,a4,11e1a <_vfprintf_r+0x1b34>
   11b8e:	24079963          	bne	a5,zero,11de0 <_vfprintf_r+0x1afa>
   11b92:	6bc6                	c.ldsp	s7,80(sp)
   11b94:	06600c93          	addi	s9,zero,102
   11b98:	b7f9                	c.j	11b66 <_vfprintf_r+0x1880>
   11b9a:	6871                	c.lui	a6,0x1c
   11b9c:	16080d13          	addi	s10,a6,352 # 1c160 <__clzdi2+0x4e>
   11ba0:	b2d9                	c.j	11566 <_vfprintf_r+0x1280>
   11ba2:	68f1                	c.lui	a7,0x1c
   11ba4:	5741                	c.li	a4,-16
   11ba6:	40c00c3b          	subw	s8,zero,a2
   11baa:	33088d93          	addi	s11,a7,816 # 1c330 <zeroes.4521>
   11bae:	4bc1                	c.li	s7,16
   11bb0:	4c9d                	c.li	s9,7
   11bb2:	00e64663          	blt	a2,a4,11bbe <_vfprintf_r+0x18d8>
   11bb6:	a8a1                	c.j	11c0e <_vfprintf_r+0x1928>
   11bb8:	3c41                	c.addiw	s8,-16
   11bba:	058bda63          	bge	s7,s8,11c0e <_vfprintf_r+0x1928>
   11bbe:	2685                	c.addiw	a3,1
   11bc0:	07c1                	c.addi	a5,16
   11bc2:	01b33023          	sd	s11,0(t1)
   11bc6:	01733423          	sd	s7,8(t1)
   11bca:	f23e                	c.sdsp	a5,288(sp)
   11bcc:	10d12c23          	sw	a3,280(sp)
   11bd0:	0341                	c.addi	t1,16
   11bd2:	fedcd3e3          	bge	s9,a3,11bb8 <_vfprintf_r+0x18d2>
   11bd6:	0a10                	c.addi4spn	a2,sp,272
   11bd8:	85ce                	c.mv	a1,s3
   11bda:	8552                	c.mv	a0,s4
   11bdc:	1fe060ef          	jal	ra,17dda <__sprint_r>
   11be0:	a8051b63          	bne	a0,zero,10e76 <_vfprintf_r+0xb90>
   11be4:	7792                	c.ldsp	a5,288(sp)
   11be6:	11812683          	lw	a3,280(sp)
   11bea:	835a                	c.mv	t1,s6
   11bec:	b7f1                	c.j	11bb8 <_vfprintf_r+0x18d2>
   11bee:	57fd                	c.li	a5,-1
   11bf0:	e43e                	c.sdsp	a5,8(sp)
   11bf2:	9b7fe06f          	jal	zero,105a8 <_vfprintf_r+0x2c2>
   11bf6:	001c059b          	addiw	a1,s8,1
   11bfa:	8552                	c.mv	a0,s4
   11bfc:	ec1a                	c.sdsp	t1,24(sp)
   11bfe:	747020ef          	jal	ra,14b44 <_malloc_r>
   11c02:	6362                	c.ldsp	t1,24(sp)
   11c04:	8d2a                	c.mv	s10,a0
   11c06:	26050663          	beq	a0,zero,11e72 <_vfprintf_r+0x1b8c>
   11c0a:	ec2a                	c.sdsp	a0,24(sp)
   11c0c:	b195                	c.j	11870 <_vfprintf_r+0x158a>
   11c0e:	2685                	c.addiw	a3,1
   11c10:	97e2                	c.add	a5,s8
   11c12:	01b33023          	sd	s11,0(t1)
   11c16:	01833423          	sd	s8,8(t1)
   11c1a:	f23e                	c.sdsp	a5,288(sp)
   11c1c:	10d12c23          	sw	a3,280(sp)
   11c20:	471d                	c.li	a4,7
   11c22:	8ed750e3          	bge	a4,a3,11502 <_vfprintf_r+0x121c>
   11c26:	0a10                	c.addi4spn	a2,sp,272
   11c28:	85ce                	c.mv	a1,s3
   11c2a:	8552                	c.mv	a0,s4
   11c2c:	1ae060ef          	jal	ra,17dda <__sprint_r>
   11c30:	a4051363          	bne	a0,zero,10e76 <_vfprintf_r+0xb90>
   11c34:	7792                	c.ldsp	a5,288(sp)
   11c36:	11812683          	lw	a3,280(sp)
   11c3a:	835a                	c.mv	t1,s6
   11c3c:	d29fe06f          	jal	zero,10964 <_vfprintf_r+0x67e>
   11c40:	77ea                	c.ldsp	a5,184(sp)
   11c42:	fdbe                	c.sdsp	a5,248(sp)
   11c44:	67a6                	c.ldsp	a5,72(sp)
   11c46:	fffdc683          	lbu	a3,-1(s11)
   11c4a:	00f7c603          	lbu	a2,15(a5)
   11c4e:	87ee                	c.mv	a5,s11
   11c50:	00d61e63          	bne	a2,a3,11c6c <_vfprintf_r+0x1986>
   11c54:	03000593          	addi	a1,zero,48
   11c58:	feb78fa3          	sb	a1,-1(a5)
   11c5c:	77ee                	c.ldsp	a5,248(sp)
   11c5e:	fff78693          	addi	a3,a5,-1
   11c62:	fdb6                	c.sdsp	a3,248(sp)
   11c64:	fff7c683          	lbu	a3,-1(a5)
   11c68:	fed608e3          	beq	a2,a3,11c58 <_vfprintf_r+0x1972>
   11c6c:	0016861b          	addiw	a2,a3,1
   11c70:	03900593          	addi	a1,zero,57
   11c74:	0ff67613          	andi	a2,a2,255
   11c78:	00b68563          	beq	a3,a1,11c82 <_vfprintf_r+0x199c>
   11c7c:	fec78fa3          	sb	a2,-1(a5)
   11c80:	b32d                	c.j	119aa <_vfprintf_r+0x16c4>
   11c82:	6726                	c.ldsp	a4,72(sp)
   11c84:	00a74603          	lbu	a2,10(a4)
   11c88:	fec78fa3          	sb	a2,-1(a5)
   11c8c:	bb39                	c.j	119aa <_vfprintf_r+0x16c4>
   11c8e:	03000793          	addi	a5,zero,48
   11c92:	0ef10023          	sb	a5,224(sp)
   11c96:	07800713          	addi	a4,zero,120
   11c9a:	be75                	c.j	11856 <_vfprintf_r+0x1570>
   11c9c:	04700793          	addi	a5,zero,71
   11ca0:	018d0933          	add	s2,s10,s8
   11ca4:	ecbe                	c.sdsp	a5,88(sp)
   11ca6:	b15fe06f          	jal	zero,107ba <_vfprintf_r+0x4d4>
   11caa:	8da6                	c.mv	s11,s1
   11cac:	aacff06f          	jal	zero,10f58 <_vfprintf_r+0xc72>
   11cb0:	4c19                	c.li	s8,6
   11cb2:	aaffe06f          	jal	zero,10760 <_vfprintf_r+0x47a>
   11cb6:	c31c                	c.sw	a5,0(a4)
   11cb8:	8d22                	c.mv	s10,s0
   11cba:	8d1fe06f          	jal	zero,1058a <_vfprintf_r+0x2a4>
   11cbe:	000c1363          	bne	s8,zero,11cc4 <_vfprintf_r+0x19de>
   11cc2:	4c05                	c.li	s8,1
   11cc4:	6bb2                	c.ldsp	s7,264(sp)
   11cc6:	1004e913          	ori	s2,s1,256
   11cca:	6d92                	c.ldsp	s11,256(sp)
   11ccc:	2901                	c.addiw	s2,0
   11cce:	d40bcde3          	blt	s7,zero,11a28 <_vfprintf_r+0x1742>
   11cd2:	0f810893          	addi	a7,sp,248
   11cd6:	0ec10813          	addi	a6,sp,236
   11cda:	11bc                	c.addi4spn	a5,sp,232
   11cdc:	8762                	c.mv	a4,s8
   11cde:	4689                	c.li	a3,2
   11ce0:	85ee                	c.mv	a1,s11
   11ce2:	865e                	c.mv	a2,s7
   11ce4:	8552                	c.mv	a0,s4
   11ce6:	f01a                	c.sdsp	t1,32(sp)
   11ce8:	69f010ef          	jal	ra,13b86 <_ldtoa_r>
   11cec:	7302                	c.ldsp	t1,32(sp)
   11cee:	f526                	c.sdsp	s1,168(sp)
   11cf0:	8d2a                	c.mv	s10,a0
   11cf2:	84ca                	c.mv	s1,s2
   11cf4:	ec02                	c.sdsp	zero,24(sp)
   11cf6:	e582                	c.sdsp	zero,200(sp)
   11cf8:	b36d                	c.j	11aa2 <_vfprintf_r+0x17bc>
   11cfa:	ec02                	c.sdsp	zero,24(sp)
   11cfc:	84be                	c.mv	s1,a5
   11cfe:	bb05                	c.j	11a2e <_vfprintf_r+0x1748>
   11d00:	06700c93          	addi	s9,zero,103
   11d04:	7786                	c.ldsp	a5,96(sp)
   11d06:	0ff00713          	addi	a4,zero,255
   11d0a:	e482                	c.sdsp	zero,72(sp)
   11d0c:	0007c783          	lbu	a5,0(a5)
   11d10:	ec82                	c.sdsp	zero,88(sp)
   11d12:	02e78863          	beq	a5,a4,11d42 <_vfprintf_r+0x1a5c>
   11d16:	0ff00693          	addi	a3,zero,255
   11d1a:	6646                	c.ldsp	a2,80(sp)
   11d1c:	0007871b          	addiw	a4,a5,0
   11d20:	02c7d163          	bge	a5,a2,11d42 <_vfprintf_r+0x1a5c>
   11d24:	7586                	c.ldsp	a1,96(sp)
   11d26:	40e6073b          	subw	a4,a2,a4
   11d2a:	e8ba                	c.sdsp	a4,80(sp)
   11d2c:	0015c783          	lbu	a5,1(a1)
   11d30:	cf8d                	c.beqz	a5,11d6a <_vfprintf_r+0x1a84>
   11d32:	6766                	c.ldsp	a4,88(sp)
   11d34:	2705                	c.addiw	a4,1
   11d36:	ecba                	c.sdsp	a4,88(sp)
   11d38:	00158713          	addi	a4,a1,1
   11d3c:	f0ba                	c.sdsp	a4,96(sp)
   11d3e:	fcd79ee3          	bne	a5,a3,11d1a <_vfprintf_r+0x1a34>
   11d42:	6766                	c.ldsp	a4,88(sp)
   11d44:	67a6                	c.ldsp	a5,72(sp)
   11d46:	9fb9                	c.addw	a5,a4
   11d48:	670a                	c.ldsp	a4,128(sp)
   11d4a:	02e787bb          	mulw	a5,a5,a4
   11d4e:	017787bb          	addw	a5,a5,s7
   11d52:	00078b9b          	addiw	s7,a5,0
   11d56:	fffbc913          	xori	s2,s7,-1
   11d5a:	43f95913          	srai	s2,s2,0x3f
   11d5e:	0127f7b3          	and	a5,a5,s2
   11d62:	0007891b          	addiw	s2,a5,0
   11d66:	b8bfe06f          	jal	zero,108f0 <_vfprintf_r+0x60a>
   11d6a:	6726                	c.ldsp	a4,72(sp)
   11d6c:	7786                	c.ldsp	a5,96(sp)
   11d6e:	2705                	c.addiw	a4,1
   11d70:	0007c783          	lbu	a5,0(a5)
   11d74:	e4ba                	c.sdsp	a4,72(sp)
   11d76:	b7e1                	c.j	11d3e <_vfprintf_r+0x1a58>
   11d78:	85de                	c.mv	a1,s7
   11d7a:	856e                	c.mv	a0,s11
   11d7c:	fc1a                	c.sdsp	t1,56(sp)
   11d7e:	1640a0ef          	jal	ra,1bee2 <__trunctfdf2>
   11d82:	11a8                	c.addi4spn	a0,sp,232
   11d84:	09a040ef          	jal	ra,15e1e <frexp>
   11d88:	09a0a0ef          	jal	ra,1be22 <__extenddftf2>
   11d8c:	768a                	c.ldsp	a3,160(sp)
   11d8e:	4601                	c.li	a2,0
   11d90:	174090ef          	jal	ra,1af04 <__multf3>
   11d94:	4601                	c.li	a2,0
   11d96:	4681                	c.li	a3,0
   11d98:	f82a                	c.sdsp	a0,48(sp)
   11d9a:	f02e                	c.sdsp	a1,32(sp)
   11d9c:	785080ef          	jal	ra,1ad20 <__eqtf2>
   11da0:	7f82                	c.ldsp	t6,32(sp)
   11da2:	7f42                	c.ldsp	t5,48(sp)
   11da4:	7362                	c.ldsp	t1,56(sp)
   11da6:	e119                	c.bnez	a0,11dac <_vfprintf_r+0x1ac6>
   11da8:	4785                	c.li	a5,1
   11daa:	d5be                	c.swsp	a5,232(sp)
   11dac:	6bf1                	c.lui	s7,0x1c
   11dae:	188b8793          	addi	a5,s7,392 # 1c188 <__clzdi2+0x76>
   11db2:	e4be                	c.sdsp	a5,72(sp)
   11db4:	b625                	c.j	118dc <_vfprintf_r+0x15f6>
   11db6:	0f210713          	addi	a4,sp,242
   11dba:	e699                	c.bnez	a3,11dc8 <_vfprintf_r+0x1ae2>
   11dbc:	03000713          	addi	a4,zero,48
   11dc0:	0ee10923          	sb	a4,242(sp)
   11dc4:	0f310713          	addi	a4,sp,243
   11dc8:	0c14                	c.addi4spn	a3,sp,528
   11dca:	0307879b          	addiw	a5,a5,48
   11dce:	40d706b3          	sub	a3,a4,a3
   11dd2:	00f70023          	sb	a5,0(a4)
   11dd6:	1216879b          	addiw	a5,a3,289
   11dda:	fcbe                	c.sdsp	a5,120(sp)
   11ddc:	adbfe06f          	jal	zero,108b6 <_vfprintf_r+0x5d0>
   11de0:	77a6                	c.ldsp	a5,104(sp)
   11de2:	06600c93          	addi	s9,zero,102
   11de6:	00e78bbb          	addw	s7,a5,a4
   11dea:	018b8bbb          	addw	s7,s7,s8
   11dee:	bba5                	c.j	11b66 <_vfprintf_r+0x1880>
   11df0:	772a                	c.ldsp	a4,168(sp)
   11df2:	8b05                	c.andi	a4,1
   11df4:	e319                	c.bnez	a4,11dfa <_vfprintf_r+0x1b14>
   11df6:	adbfe06f          	jal	zero,108d0 <_vfprintf_r+0x5ea>
   11dfa:	ad1fe06f          	jal	zero,108ca <_vfprintf_r+0x5e4>
   11dfe:	40eb87bb          	subw	a5,s7,a4
   11e02:	2785                	c.addiw	a5,1
   11e04:	00078b9b          	addiw	s7,a5,0
   11e08:	fffbc913          	xori	s2,s7,-1
   11e0c:	43f95913          	srai	s2,s2,0x3f
   11e10:	0127f7b3          	and	a5,a5,s2
   11e14:	0007891b          	addiw	s2,a5,0
   11e18:	bee5                	c.j	11a10 <_vfprintf_r+0x172a>
   11e1a:	e791                	c.bnez	a5,11e26 <_vfprintf_r+0x1b40>
   11e1c:	4905                	c.li	s2,1
   11e1e:	06600c93          	addi	s9,zero,102
   11e22:	4b85                	c.li	s7,1
   11e24:	b6f5                	c.j	11a10 <_vfprintf_r+0x172a>
   11e26:	77a6                	c.ldsp	a5,104(sp)
   11e28:	06600c93          	addi	s9,zero,102
   11e2c:	2785                	c.addiw	a5,1
   11e2e:	01878e3b          	addw	t3,a5,s8
   11e32:	000e0b9b          	addiw	s7,t3,0
   11e36:	fffbc913          	xori	s2,s7,-1
   11e3a:	43f95913          	srai	s2,s2,0x3f
   11e3e:	012e7e33          	and	t3,t3,s2
   11e42:	000e091b          	addiw	s2,t3,0
   11e46:	b6e9                	c.j	11a10 <_vfprintf_r+0x172a>
   11e48:	68f1                	c.lui	a7,0x1c
   11e4a:	871a                	c.mv	a4,t1
   11e4c:	33088d93          	addi	s11,a7,816 # 1c330 <zeroes.4521>
   11e50:	cf4ff06f          	jal	zero,11344 <_vfprintf_r+0x105e>
   11e54:	66c2                	c.ldsp	a3,16(sp)
   11e56:	4298                	c.lw	a4,0(a3)
   11e58:	06a1                	c.addi	a3,8
   11e5a:	8e3a                	c.mv	t3,a4
   11e5c:	00075363          	bge	a4,zero,11e62 <_vfprintf_r+0x1b7c>
   11e60:	5e7d                	c.li	t3,-1
   11e62:	00144e83          	lbu	t4,1(s0)
   11e66:	000e0c1b          	addiw	s8,t3,0
   11e6a:	e836                	c.sdsp	a3,16(sp)
   11e6c:	843e                	c.mv	s0,a5
   11e6e:	dc8fe06f          	jal	zero,10436 <_vfprintf_r+0x150>
   11e72:	0109d783          	lhu	a5,16(s3)
   11e76:	0407e793          	ori	a5,a5,64
   11e7a:	00f99823          	sh	a5,16(s3)
   11e7e:	f1cfe06f          	jal	zero,1059a <_vfprintf_r+0x2b4>
   11e82:	4789                	c.li	a5,2
   11e84:	fcbe                	c.sdsp	a5,120(sp)
   11e86:	a31fe06f          	jal	zero,108b6 <_vfprintf_r+0x5d0>

0000000000011e8a <vfprintf>:
   11e8a:	87aa                	c.mv	a5,a0
   11e8c:	7581b503          	ld	a0,1880(gp) # 1e160 <_impure_ptr>
   11e90:	86b2                	c.mv	a3,a2
   11e92:	862e                	c.mv	a2,a1
   11e94:	85be                	c.mv	a1,a5
   11e96:	c50fe06f          	jal	zero,102e6 <_vfprintf_r>

0000000000011e9a <__sbprintf>:
   11e9a:	0105d783          	lhu	a5,16(a1)
   11e9e:	0ac5ae03          	lw	t3,172(a1)
   11ea2:	0125d303          	lhu	t1,18(a1)
   11ea6:	0305b883          	ld	a7,48(a1)
   11eaa:	0405b803          	ld	a6,64(a1)
   11eae:	b3010113          	addi	sp,sp,-1232
   11eb2:	9bf5                	c.andi	a5,-3
   11eb4:	40000713          	addi	a4,zero,1024
   11eb8:	4c813023          	sd	s0,1216(sp)
   11ebc:	00f11823          	sh	a5,16(sp)
   11ec0:	842e                	c.mv	s0,a1
   11ec2:	191c                	c.addi4spn	a5,sp,176
   11ec4:	858a                	c.mv	a1,sp
   11ec6:	4a913c23          	sd	s1,1208(sp)
   11eca:	4b213823          	sd	s2,1200(sp)
   11ece:	4c113423          	sd	ra,1224(sp)
   11ed2:	892a                	c.mv	s2,a0
   11ed4:	d772                	c.swsp	t3,172(sp)
   11ed6:	00611923          	sh	t1,18(sp)
   11eda:	f846                	c.sdsp	a7,48(sp)
   11edc:	e0c2                	c.sdsp	a6,64(sp)
   11ede:	e03e                	c.sdsp	a5,0(sp)
   11ee0:	ec3e                	c.sdsp	a5,24(sp)
   11ee2:	c63a                	c.swsp	a4,12(sp)
   11ee4:	d03a                	c.swsp	a4,32(sp)
   11ee6:	d402                	c.swsp	zero,40(sp)
   11ee8:	bfefe0ef          	jal	ra,102e6 <_vfprintf_r>
   11eec:	84aa                	c.mv	s1,a0
   11eee:	02055963          	bge	a0,zero,11f20 <__sbprintf+0x86>
   11ef2:	01015783          	lhu	a5,16(sp)
   11ef6:	0407f793          	andi	a5,a5,64
   11efa:	c799                	c.beqz	a5,11f08 <__sbprintf+0x6e>
   11efc:	01045783          	lhu	a5,16(s0)
   11f00:	0407e793          	ori	a5,a5,64
   11f04:	00f41823          	sh	a5,16(s0)
   11f08:	4c813083          	ld	ra,1224(sp)
   11f0c:	4c013403          	ld	s0,1216(sp)
   11f10:	4b013903          	ld	s2,1200(sp)
   11f14:	8526                	c.mv	a0,s1
   11f16:	4b813483          	ld	s1,1208(sp)
   11f1a:	4d010113          	addi	sp,sp,1232
   11f1e:	8082                	c.jr	ra
   11f20:	858a                	c.mv	a1,sp
   11f22:	854a                	c.mv	a0,s2
   11f24:	360000ef          	jal	ra,12284 <_fflush_r>
   11f28:	d569                	c.beqz	a0,11ef2 <__sbprintf+0x58>
   11f2a:	54fd                	c.li	s1,-1
   11f2c:	b7d9                	c.j	11ef2 <__sbprintf+0x58>

0000000000011f2e <__swsetup_r>:
   11f2e:	7581b783          	ld	a5,1880(gp) # 1e160 <_impure_ptr>
   11f32:	1101                	c.addi	sp,-32
   11f34:	e822                	c.sdsp	s0,16(sp)
   11f36:	e426                	c.sdsp	s1,8(sp)
   11f38:	ec06                	c.sdsp	ra,24(sp)
   11f3a:	84aa                	c.mv	s1,a0
   11f3c:	842e                	c.mv	s0,a1
   11f3e:	c399                	c.beqz	a5,11f44 <__swsetup_r+0x16>
   11f40:	4bb8                	c.lw	a4,80(a5)
   11f42:	cf49                	c.beqz	a4,11fdc <__swsetup_r+0xae>
   11f44:	01041703          	lh	a4,16(s0)
   11f48:	03071793          	slli	a5,a4,0x30
   11f4c:	00877693          	andi	a3,a4,8
   11f50:	93c1                	c.srli	a5,0x30
   11f52:	c29d                	c.beqz	a3,11f78 <__swsetup_r+0x4a>
   11f54:	6c14                	c.ld	a3,24(s0)
   11f56:	ce9d                	c.beqz	a3,11f94 <__swsetup_r+0x66>
   11f58:	0017f613          	andi	a2,a5,1
   11f5c:	ce39                	c.beqz	a2,11fba <__swsetup_r+0x8c>
   11f5e:	5010                	c.lw	a2,32(s0)
   11f60:	00042623          	sw	zero,12(s0)
   11f64:	4501                	c.li	a0,0
   11f66:	40c0063b          	subw	a2,zero,a2
   11f6a:	d410                	c.sw	a2,40(s0)
   11f6c:	ceb9                	c.beqz	a3,11fca <__swsetup_r+0x9c>
   11f6e:	60e2                	c.ldsp	ra,24(sp)
   11f70:	6442                	c.ldsp	s0,16(sp)
   11f72:	64a2                	c.ldsp	s1,8(sp)
   11f74:	6105                	c.addi16sp	sp,32
   11f76:	8082                	c.jr	ra
   11f78:	0107f693          	andi	a3,a5,16
   11f7c:	cac1                	c.beqz	a3,1200c <__swsetup_r+0xde>
   11f7e:	8b91                	c.andi	a5,4
   11f80:	e3b5                	c.bnez	a5,11fe4 <__swsetup_r+0xb6>
   11f82:	6c14                	c.ld	a3,24(s0)
   11f84:	00876713          	ori	a4,a4,8
   11f88:	03071793          	slli	a5,a4,0x30
   11f8c:	00e41823          	sh	a4,16(s0)
   11f90:	93c1                	c.srli	a5,0x30
   11f92:	f2f9                	c.bnez	a3,11f58 <__swsetup_r+0x2a>
   11f94:	2807f613          	andi	a2,a5,640
   11f98:	20000593          	addi	a1,zero,512
   11f9c:	fab60ee3          	beq	a2,a1,11f58 <__swsetup_r+0x2a>
   11fa0:	85a2                	c.mv	a1,s0
   11fa2:	8526                	c.mv	a0,s1
   11fa4:	2e7020ef          	jal	ra,14a8a <__smakebuf_r>
   11fa8:	01041703          	lh	a4,16(s0)
   11fac:	6c14                	c.ld	a3,24(s0)
   11fae:	03071793          	slli	a5,a4,0x30
   11fb2:	93c1                	c.srli	a5,0x30
   11fb4:	0017f613          	andi	a2,a5,1
   11fb8:	f25d                	c.bnez	a2,11f5e <__swsetup_r+0x30>
   11fba:	0027f613          	andi	a2,a5,2
   11fbe:	4581                	c.li	a1,0
   11fc0:	e211                	c.bnez	a2,11fc4 <__swsetup_r+0x96>
   11fc2:	500c                	c.lw	a1,32(s0)
   11fc4:	c44c                	c.sw	a1,12(s0)
   11fc6:	4501                	c.li	a0,0
   11fc8:	f2dd                	c.bnez	a3,11f6e <__swsetup_r+0x40>
   11fca:	0807f793          	andi	a5,a5,128
   11fce:	d3c5                	c.beqz	a5,11f6e <__swsetup_r+0x40>
   11fd0:	04076713          	ori	a4,a4,64
   11fd4:	00e41823          	sh	a4,16(s0)
   11fd8:	557d                	c.li	a0,-1
   11fda:	bf51                	c.j	11f6e <__swsetup_r+0x40>
   11fdc:	853e                	c.mv	a0,a5
   11fde:	528000ef          	jal	ra,12506 <__sinit>
   11fe2:	b78d                	c.j	11f44 <__swsetup_r+0x16>
   11fe4:	6c2c                	c.ld	a1,88(s0)
   11fe6:	cd81                	c.beqz	a1,11ffe <__swsetup_r+0xd0>
   11fe8:	07440793          	addi	a5,s0,116
   11fec:	00f58763          	beq	a1,a5,11ffa <__swsetup_r+0xcc>
   11ff0:	8526                	c.mv	a0,s1
   11ff2:	640000ef          	jal	ra,12632 <_free_r>
   11ff6:	01041703          	lh	a4,16(s0)
   11ffa:	04043c23          	sd	zero,88(s0)
   11ffe:	6c14                	c.ld	a3,24(s0)
   12000:	fdb77713          	andi	a4,a4,-37
   12004:	00042423          	sw	zero,8(s0)
   12008:	e014                	c.sd	a3,0(s0)
   1200a:	bfad                	c.j	11f84 <__swsetup_r+0x56>
   1200c:	47a5                	c.li	a5,9
   1200e:	c09c                	c.sw	a5,0(s1)
   12010:	04076713          	ori	a4,a4,64
   12014:	00e41823          	sh	a4,16(s0)
   12018:	557d                	c.li	a0,-1
   1201a:	bf91                	c.j	11f6e <__swsetup_r+0x40>

000000000001201c <__call_exitprocs>:
   1201c:	715d                	c.addi16sp	sp,-80
   1201e:	f052                	c.sdsp	s4,32(sp)
   12020:	7481ba03          	ld	s4,1864(gp) # 1e150 <_global_impure_ptr>
   12024:	f84a                	c.sdsp	s2,48(sp)
   12026:	e486                	c.sdsp	ra,72(sp)
   12028:	1f8a3903          	ld	s2,504(s4)
   1202c:	e0a2                	c.sdsp	s0,64(sp)
   1202e:	fc26                	c.sdsp	s1,56(sp)
   12030:	f44e                	c.sdsp	s3,40(sp)
   12032:	ec56                	c.sdsp	s5,24(sp)
   12034:	e85a                	c.sdsp	s6,16(sp)
   12036:	e45e                	c.sdsp	s7,8(sp)
   12038:	e062                	c.sdsp	s8,0(sp)
   1203a:	02090863          	beq	s2,zero,1206a <__call_exitprocs+0x4e>
   1203e:	8b2a                	c.mv	s6,a0
   12040:	8bae                	c.mv	s7,a1
   12042:	4a85                	c.li	s5,1
   12044:	59fd                	c.li	s3,-1
   12046:	00892483          	lw	s1,8(s2)
   1204a:	fff4841b          	addiw	s0,s1,-1
   1204e:	00044e63          	blt	s0,zero,1206a <__call_exitprocs+0x4e>
   12052:	048e                	c.slli	s1,0x3
   12054:	94ca                	c.add	s1,s2
   12056:	020b8663          	beq	s7,zero,12082 <__call_exitprocs+0x66>
   1205a:	2084b783          	ld	a5,520(s1)
   1205e:	03778263          	beq	a5,s7,12082 <__call_exitprocs+0x66>
   12062:	347d                	c.addiw	s0,-1
   12064:	14e1                	c.addi	s1,-8
   12066:	ff3418e3          	bne	s0,s3,12056 <__call_exitprocs+0x3a>
   1206a:	60a6                	c.ldsp	ra,72(sp)
   1206c:	6406                	c.ldsp	s0,64(sp)
   1206e:	74e2                	c.ldsp	s1,56(sp)
   12070:	7942                	c.ldsp	s2,48(sp)
   12072:	79a2                	c.ldsp	s3,40(sp)
   12074:	7a02                	c.ldsp	s4,32(sp)
   12076:	6ae2                	c.ldsp	s5,24(sp)
   12078:	6b42                	c.ldsp	s6,16(sp)
   1207a:	6ba2                	c.ldsp	s7,8(sp)
   1207c:	6c02                	c.ldsp	s8,0(sp)
   1207e:	6161                	c.addi16sp	sp,80
   12080:	8082                	c.jr	ra
   12082:	00892783          	lw	a5,8(s2)
   12086:	6498                	c.ld	a4,8(s1)
   12088:	37fd                	c.addiw	a5,-1
   1208a:	04878463          	beq	a5,s0,120d2 <__call_exitprocs+0xb6>
   1208e:	0004b423          	sd	zero,8(s1)
   12092:	db61                	c.beqz	a4,12062 <__call_exitprocs+0x46>
   12094:	31092783          	lw	a5,784(s2)
   12098:	008a96bb          	sllw	a3,s5,s0
   1209c:	00892c03          	lw	s8,8(s2)
   120a0:	8ff5                	c.and	a5,a3
   120a2:	2781                	c.addiw	a5,0
   120a4:	ef89                	c.bnez	a5,120be <__call_exitprocs+0xa2>
   120a6:	9702                	c.jalr	a4
   120a8:	00892703          	lw	a4,8(s2)
   120ac:	1f8a3783          	ld	a5,504(s4)
   120b0:	01871463          	bne	a4,s8,120b8 <__call_exitprocs+0x9c>
   120b4:	faf907e3          	beq	s2,a5,12062 <__call_exitprocs+0x46>
   120b8:	dbcd                	c.beqz	a5,1206a <__call_exitprocs+0x4e>
   120ba:	893e                	c.mv	s2,a5
   120bc:	b769                	c.j	12046 <__call_exitprocs+0x2a>
   120be:	31492783          	lw	a5,788(s2)
   120c2:	1084b583          	ld	a1,264(s1)
   120c6:	8ff5                	c.and	a5,a3
   120c8:	2781                	c.addiw	a5,0
   120ca:	e799                	c.bnez	a5,120d8 <__call_exitprocs+0xbc>
   120cc:	855a                	c.mv	a0,s6
   120ce:	9702                	c.jalr	a4
   120d0:	bfe1                	c.j	120a8 <__call_exitprocs+0x8c>
   120d2:	00892423          	sw	s0,8(s2)
   120d6:	bf75                	c.j	12092 <__call_exitprocs+0x76>
   120d8:	852e                	c.mv	a0,a1
   120da:	9702                	c.jalr	a4
   120dc:	b7f1                	c.j	120a8 <__call_exitprocs+0x8c>

00000000000120de <atexit>:
   120de:	85aa                	c.mv	a1,a0
   120e0:	4681                	c.li	a3,0
   120e2:	4601                	c.li	a2,0
   120e4:	4501                	c.li	a0,0
   120e6:	2090606f          	jal	zero,18aee <__register_exitproc>

00000000000120ea <__sflush_r>:
   120ea:	01059783          	lh	a5,16(a1)
   120ee:	7179                	c.addi16sp	sp,-48
   120f0:	f022                	c.sdsp	s0,32(sp)
   120f2:	e44e                	c.sdsp	s3,8(sp)
   120f4:	f406                	c.sdsp	ra,40(sp)
   120f6:	ec26                	c.sdsp	s1,24(sp)
   120f8:	e84a                	c.sdsp	s2,16(sp)
   120fa:	0087f693          	andi	a3,a5,8
   120fe:	842e                	c.mv	s0,a1
   12100:	89aa                	c.mv	s3,a0
   12102:	eecd                	c.bnez	a3,121bc <__sflush_r+0xd2>
   12104:	6705                	c.lui	a4,0x1
   12106:	80070713          	addi	a4,a4,-2048 # 800 <main-0xf8b0>
   1210a:	4594                	c.lw	a3,8(a1)
   1210c:	8fd9                	c.or	a5,a4
   1210e:	00f59823          	sh	a5,16(a1)
   12112:	10d05363          	bge	zero,a3,12218 <__sflush_r+0x12e>
   12116:	6438                	c.ld	a4,72(s0)
   12118:	cb51                	c.beqz	a4,121ac <__sflush_r+0xc2>
   1211a:	0009a483          	lw	s1,0(s3)
   1211e:	03079693          	slli	a3,a5,0x30
   12122:	0009a023          	sw	zero,0(s3)
   12126:	03379613          	slli	a2,a5,0x33
   1212a:	780c                	c.ld	a1,48(s0)
   1212c:	92c1                	c.srli	a3,0x30
   1212e:	0e064963          	blt	a2,zero,12220 <__sflush_r+0x136>
   12132:	4601                	c.li	a2,0
   12134:	4685                	c.li	a3,1
   12136:	854e                	c.mv	a0,s3
   12138:	9702                	c.jalr	a4
   1213a:	57fd                	c.li	a5,-1
   1213c:	862a                	c.mv	a2,a0
   1213e:	10f50963          	beq	a0,a5,12250 <__sflush_r+0x166>
   12142:	01045683          	lhu	a3,16(s0)
   12146:	6438                	c.ld	a4,72(s0)
   12148:	780c                	c.ld	a1,48(s0)
   1214a:	8a91                	c.andi	a3,4
   1214c:	c699                	c.beqz	a3,1215a <__sflush_r+0x70>
   1214e:	4414                	c.lw	a3,8(s0)
   12150:	6c3c                	c.ld	a5,88(s0)
   12152:	8e15                	c.sub	a2,a3
   12154:	c399                	c.beqz	a5,1215a <__sflush_r+0x70>
   12156:	583c                	c.lw	a5,112(s0)
   12158:	8e1d                	c.sub	a2,a5
   1215a:	4681                	c.li	a3,0
   1215c:	854e                	c.mv	a0,s3
   1215e:	9702                	c.jalr	a4
   12160:	57fd                	c.li	a5,-1
   12162:	0cf51163          	bne	a0,a5,12224 <__sflush_r+0x13a>
   12166:	0009a703          	lw	a4,0(s3)
   1216a:	01041783          	lh	a5,16(s0)
   1216e:	0e070f63          	beq	a4,zero,1226c <__sflush_r+0x182>
   12172:	46f5                	c.li	a3,29
   12174:	00d70563          	beq	a4,a3,1217e <__sflush_r+0x94>
   12178:	46d9                	c.li	a3,22
   1217a:	0ed71f63          	bne	a4,a3,12278 <__sflush_r+0x18e>
   1217e:	6c14                	c.ld	a3,24(s0)
   12180:	777d                	c.lui	a4,0xfffff
   12182:	7ff70713          	addi	a4,a4,2047 # fffffffffffff7ff <__BSS_END__+0xfffffffffffe15f7>
   12186:	8ff9                	c.and	a5,a4
   12188:	00f41823          	sh	a5,16(s0)
   1218c:	00042423          	sw	zero,8(s0)
   12190:	e014                	c.sd	a3,0(s0)
   12192:	6c2c                	c.ld	a1,88(s0)
   12194:	0099a023          	sw	s1,0(s3)
   12198:	c991                	c.beqz	a1,121ac <__sflush_r+0xc2>
   1219a:	07440793          	addi	a5,s0,116
   1219e:	00f58563          	beq	a1,a5,121a8 <__sflush_r+0xbe>
   121a2:	854e                	c.mv	a0,s3
   121a4:	48e000ef          	jal	ra,12632 <_free_r>
   121a8:	04043c23          	sd	zero,88(s0)
   121ac:	4501                	c.li	a0,0
   121ae:	70a2                	c.ldsp	ra,40(sp)
   121b0:	7402                	c.ldsp	s0,32(sp)
   121b2:	64e2                	c.ldsp	s1,24(sp)
   121b4:	6942                	c.ldsp	s2,16(sp)
   121b6:	69a2                	c.ldsp	s3,8(sp)
   121b8:	6145                	c.addi16sp	sp,48
   121ba:	8082                	c.jr	ra
   121bc:	0185b903          	ld	s2,24(a1)
   121c0:	fe0906e3          	beq	s2,zero,121ac <__sflush_r+0xc2>
   121c4:	6184                	c.ld	s1,0(a1)
   121c6:	03079713          	slli	a4,a5,0x30
   121ca:	9341                	c.srli	a4,0x30
   121cc:	8b0d                	c.andi	a4,3
   121ce:	0125b023          	sd	s2,0(a1)
   121d2:	412484bb          	subw	s1,s1,s2
   121d6:	4781                	c.li	a5,0
   121d8:	e311                	c.bnez	a4,121dc <__sflush_r+0xf2>
   121da:	519c                	c.lw	a5,32(a1)
   121dc:	c45c                	c.sw	a5,12(s0)
   121de:	00904663          	blt	zero,s1,121ea <__sflush_r+0x100>
   121e2:	b7e9                	c.j	121ac <__sflush_r+0xc2>
   121e4:	992a                	c.add	s2,a0
   121e6:	fc9053e3          	bge	zero,s1,121ac <__sflush_r+0xc2>
   121ea:	603c                	c.ld	a5,64(s0)
   121ec:	780c                	c.ld	a1,48(s0)
   121ee:	86a6                	c.mv	a3,s1
   121f0:	864a                	c.mv	a2,s2
   121f2:	854e                	c.mv	a0,s3
   121f4:	9782                	c.jalr	a5
   121f6:	9c89                	c.subw	s1,a0
   121f8:	fea046e3          	blt	zero,a0,121e4 <__sflush_r+0xfa>
   121fc:	01045783          	lhu	a5,16(s0)
   12200:	70a2                	c.ldsp	ra,40(sp)
   12202:	64e2                	c.ldsp	s1,24(sp)
   12204:	0407e793          	ori	a5,a5,64
   12208:	00f41823          	sh	a5,16(s0)
   1220c:	7402                	c.ldsp	s0,32(sp)
   1220e:	6942                	c.ldsp	s2,16(sp)
   12210:	69a2                	c.ldsp	s3,8(sp)
   12212:	557d                	c.li	a0,-1
   12214:	6145                	c.addi16sp	sp,48
   12216:	8082                	c.jr	ra
   12218:	59b8                	c.lw	a4,112(a1)
   1221a:	eee04ee3          	blt	zero,a4,12116 <__sflush_r+0x2c>
   1221e:	b779                	c.j	121ac <__sflush_r+0xc2>
   12220:	6850                	c.ld	a2,144(s0)
   12222:	b725                	c.j	1214a <__sflush_r+0x60>
   12224:	01045783          	lhu	a5,16(s0)
   12228:	777d                	c.lui	a4,0xfffff
   1222a:	7ff70713          	addi	a4,a4,2047 # fffffffffffff7ff <__BSS_END__+0xfffffffffffe15f7>
   1222e:	8ff9                	c.and	a5,a4
   12230:	6c14                	c.ld	a3,24(s0)
   12232:	0107979b          	slliw	a5,a5,0x10
   12236:	4107d79b          	sraiw	a5,a5,0x10
   1223a:	00f41823          	sh	a5,16(s0)
   1223e:	00042423          	sw	zero,8(s0)
   12242:	e014                	c.sd	a3,0(s0)
   12244:	03379713          	slli	a4,a5,0x33
   12248:	f40755e3          	bge	a4,zero,12192 <__sflush_r+0xa8>
   1224c:	e848                	c.sd	a0,144(s0)
   1224e:	b791                	c.j	12192 <__sflush_r+0xa8>
   12250:	0009a783          	lw	a5,0(s3)
   12254:	ee0787e3          	beq	a5,zero,12142 <__sflush_r+0x58>
   12258:	4775                	c.li	a4,29
   1225a:	00e78563          	beq	a5,a4,12264 <__sflush_r+0x17a>
   1225e:	4759                	c.li	a4,22
   12260:	f8e79ee3          	bne	a5,a4,121fc <__sflush_r+0x112>
   12264:	0099a023          	sw	s1,0(s3)
   12268:	4501                	c.li	a0,0
   1226a:	b791                	c.j	121ae <__sflush_r+0xc4>
   1226c:	777d                	c.lui	a4,0xfffff
   1226e:	7ff70713          	addi	a4,a4,2047 # fffffffffffff7ff <__BSS_END__+0xfffffffffffe15f7>
   12272:	6c14                	c.ld	a3,24(s0)
   12274:	8ff9                	c.and	a5,a4
   12276:	b7d1                	c.j	1223a <__sflush_r+0x150>
   12278:	0407e793          	ori	a5,a5,64
   1227c:	00f41823          	sh	a5,16(s0)
   12280:	557d                	c.li	a0,-1
   12282:	b735                	c.j	121ae <__sflush_r+0xc4>

0000000000012284 <_fflush_r>:
   12284:	1101                	c.addi	sp,-32
   12286:	e822                	c.sdsp	s0,16(sp)
   12288:	ec06                	c.sdsp	ra,24(sp)
   1228a:	842a                	c.mv	s0,a0
   1228c:	c119                	c.beqz	a0,12292 <_fflush_r+0xe>
   1228e:	493c                	c.lw	a5,80(a0)
   12290:	cb89                	c.beqz	a5,122a2 <_fflush_r+0x1e>
   12292:	01059783          	lh	a5,16(a1)
   12296:	ef89                	c.bnez	a5,122b0 <_fflush_r+0x2c>
   12298:	60e2                	c.ldsp	ra,24(sp)
   1229a:	6442                	c.ldsp	s0,16(sp)
   1229c:	4501                	c.li	a0,0
   1229e:	6105                	c.addi16sp	sp,32
   122a0:	8082                	c.jr	ra
   122a2:	e42e                	c.sdsp	a1,8(sp)
   122a4:	262000ef          	jal	ra,12506 <__sinit>
   122a8:	65a2                	c.ldsp	a1,8(sp)
   122aa:	01059783          	lh	a5,16(a1)
   122ae:	d7ed                	c.beqz	a5,12298 <_fflush_r+0x14>
   122b0:	8522                	c.mv	a0,s0
   122b2:	6442                	c.ldsp	s0,16(sp)
   122b4:	60e2                	c.ldsp	ra,24(sp)
   122b6:	6105                	c.addi16sp	sp,32
   122b8:	bd0d                	c.j	120ea <__sflush_r>

00000000000122ba <fflush>:
   122ba:	85aa                	c.mv	a1,a0
   122bc:	c501                	c.beqz	a0,122c4 <fflush+0xa>
   122be:	7581b503          	ld	a0,1880(gp) # 1e160 <_impure_ptr>
   122c2:	b7c9                	c.j	12284 <_fflush_r>
   122c4:	7481b503          	ld	a0,1864(gp) # 1e150 <_global_impure_ptr>
   122c8:	65c9                	c.lui	a1,0x12
   122ca:	28458593          	addi	a1,a1,644 # 12284 <_fflush_r>
   122ce:	ad0d                	c.j	12900 <_fwalk_reent>

00000000000122d0 <__fp_lock>:
   122d0:	4501                	c.li	a0,0
   122d2:	8082                	c.jr	ra

00000000000122d4 <_cleanup_r>:
   122d4:	65e5                	c.lui	a1,0x19
   122d6:	c6a58593          	addi	a1,a1,-918 # 18c6a <_fclose_r>
   122da:	a51d                	c.j	12900 <_fwalk_reent>

00000000000122dc <__sinit.part.0>:
   122dc:	7139                	c.addi16sp	sp,-64
   122de:	67c9                	c.lui	a5,0x12
   122e0:	fc06                	c.sdsp	ra,56(sp)
   122e2:	f822                	c.sdsp	s0,48(sp)
   122e4:	f426                	c.sdsp	s1,40(sp)
   122e6:	f04a                	c.sdsp	s2,32(sp)
   122e8:	ec4e                	c.sdsp	s3,24(sp)
   122ea:	e852                	c.sdsp	s4,16(sp)
   122ec:	e456                	c.sdsp	s5,8(sp)
   122ee:	e05a                	c.sdsp	s6,0(sp)
   122f0:	6500                	c.ld	s0,8(a0)
   122f2:	2d478793          	addi	a5,a5,724 # 122d4 <_cleanup_r>
   122f6:	ed3c                	c.sd	a5,88(a0)
   122f8:	53850713          	addi	a4,a0,1336
   122fc:	478d                	c.li	a5,3
   122fe:	52e53823          	sd	a4,1328(a0)
   12302:	52f52423          	sw	a5,1320(a0)
   12306:	52053023          	sd	zero,1312(a0)
   1230a:	4791                	c.li	a5,4
   1230c:	892a                	c.mv	s2,a0
   1230e:	c81c                	c.sw	a5,16(s0)
   12310:	4621                	c.li	a2,8
   12312:	4581                	c.li	a1,0
   12314:	0a042623          	sw	zero,172(s0)
   12318:	00043023          	sd	zero,0(s0)
   1231c:	00043423          	sd	zero,8(s0)
   12320:	00043c23          	sd	zero,24(s0)
   12324:	02042023          	sw	zero,32(s0)
   12328:	02042423          	sw	zero,40(s0)
   1232c:	0a440513          	addi	a0,s0,164
   12330:	ebffd0ef          	jal	ra,101ee <memset>
   12334:	6b59                	c.lui	s6,0x16
   12336:	01093483          	ld	s1,16(s2)
   1233a:	6ad9                	c.lui	s5,0x16
   1233c:	6a59                	c.lui	s4,0x16
   1233e:	69d9                	c.lui	s3,0x16
   12340:	f5eb0b13          	addi	s6,s6,-162 # 15f5e <__sread>
   12344:	f9aa8a93          	addi	s5,s5,-102 # 15f9a <__swrite>
   12348:	feea0a13          	addi	s4,s4,-18 # 15fee <__sseek>
   1234c:	03098993          	addi	s3,s3,48 # 16030 <__sclose>
   12350:	67c1                	c.lui	a5,0x10
   12352:	03643c23          	sd	s6,56(s0)
   12356:	05543023          	sd	s5,64(s0)
   1235a:	05443423          	sd	s4,72(s0)
   1235e:	05343823          	sd	s3,80(s0)
   12362:	f800                	c.sd	s0,48(s0)
   12364:	07a5                	c.addi	a5,9
   12366:	c89c                	c.sw	a5,16(s1)
   12368:	4621                	c.li	a2,8
   1236a:	4581                	c.li	a1,0
   1236c:	0a04a623          	sw	zero,172(s1)
   12370:	0004b023          	sd	zero,0(s1)
   12374:	0004b423          	sd	zero,8(s1)
   12378:	0004bc23          	sd	zero,24(s1)
   1237c:	0204a023          	sw	zero,32(s1)
   12380:	0204a423          	sw	zero,40(s1)
   12384:	0a448513          	addi	a0,s1,164
   12388:	e67fd0ef          	jal	ra,101ee <memset>
   1238c:	01893403          	ld	s0,24(s2)
   12390:	000207b7          	lui	a5,0x20
   12394:	0364bc23          	sd	s6,56(s1)
   12398:	0554b023          	sd	s5,64(s1)
   1239c:	0544b423          	sd	s4,72(s1)
   123a0:	0534b823          	sd	s3,80(s1)
   123a4:	f884                	c.sd	s1,48(s1)
   123a6:	07c9                	c.addi	a5,18
   123a8:	c81c                	c.sw	a5,16(s0)
   123aa:	0a042623          	sw	zero,172(s0)
   123ae:	00043023          	sd	zero,0(s0)
   123b2:	00043423          	sd	zero,8(s0)
   123b6:	00043c23          	sd	zero,24(s0)
   123ba:	02042023          	sw	zero,32(s0)
   123be:	02042423          	sw	zero,40(s0)
   123c2:	0a440513          	addi	a0,s0,164
   123c6:	4621                	c.li	a2,8
   123c8:	4581                	c.li	a1,0
   123ca:	e25fd0ef          	jal	ra,101ee <memset>
   123ce:	70e2                	c.ldsp	ra,56(sp)
   123d0:	03643c23          	sd	s6,56(s0)
   123d4:	05543023          	sd	s5,64(s0)
   123d8:	05443423          	sd	s4,72(s0)
   123dc:	05343823          	sd	s3,80(s0)
   123e0:	f800                	c.sd	s0,48(s0)
   123e2:	7442                	c.ldsp	s0,48(sp)
   123e4:	4785                	c.li	a5,1
   123e6:	04f92823          	sw	a5,80(s2)
   123ea:	74a2                	c.ldsp	s1,40(sp)
   123ec:	7902                	c.ldsp	s2,32(sp)
   123ee:	69e2                	c.ldsp	s3,24(sp)
   123f0:	6a42                	c.ldsp	s4,16(sp)
   123f2:	6aa2                	c.ldsp	s5,8(sp)
   123f4:	6b02                	c.ldsp	s6,0(sp)
   123f6:	6121                	c.addi16sp	sp,64
   123f8:	8082                	c.jr	ra

00000000000123fa <__fp_unlock>:
   123fa:	4501                	c.li	a0,0
   123fc:	8082                	c.jr	ra

00000000000123fe <__sfmoreglue>:
   123fe:	1101                	c.addi	sp,-32
   12400:	e426                	c.sdsp	s1,8(sp)
   12402:	0b000613          	addi	a2,zero,176
   12406:	fff5849b          	addiw	s1,a1,-1
   1240a:	02c484b3          	mul	s1,s1,a2
   1240e:	e04a                	c.sdsp	s2,0(sp)
   12410:	892e                	c.mv	s2,a1
   12412:	e822                	c.sdsp	s0,16(sp)
   12414:	ec06                	c.sdsp	ra,24(sp)
   12416:	0c848593          	addi	a1,s1,200
   1241a:	72a020ef          	jal	ra,14b44 <_malloc_r>
   1241e:	842a                	c.mv	s0,a0
   12420:	cd01                	c.beqz	a0,12438 <__sfmoreglue+0x3a>
   12422:	0561                	c.addi	a0,24
   12424:	00043023          	sd	zero,0(s0)
   12428:	01242423          	sw	s2,8(s0)
   1242c:	e808                	c.sd	a0,16(s0)
   1242e:	0b048613          	addi	a2,s1,176
   12432:	4581                	c.li	a1,0
   12434:	dbbfd0ef          	jal	ra,101ee <memset>
   12438:	60e2                	c.ldsp	ra,24(sp)
   1243a:	8522                	c.mv	a0,s0
   1243c:	6442                	c.ldsp	s0,16(sp)
   1243e:	64a2                	c.ldsp	s1,8(sp)
   12440:	6902                	c.ldsp	s2,0(sp)
   12442:	6105                	c.addi16sp	sp,32
   12444:	8082                	c.jr	ra

0000000000012446 <__sfp>:
   12446:	7179                	c.addi16sp	sp,-48
   12448:	ec26                	c.sdsp	s1,24(sp)
   1244a:	7481b483          	ld	s1,1864(gp) # 1e150 <_global_impure_ptr>
   1244e:	e84a                	c.sdsp	s2,16(sp)
   12450:	f406                	c.sdsp	ra,40(sp)
   12452:	48bc                	c.lw	a5,80(s1)
   12454:	f022                	c.sdsp	s0,32(sp)
   12456:	e44e                	c.sdsp	s3,8(sp)
   12458:	892a                	c.mv	s2,a0
   1245a:	c3c9                	c.beqz	a5,124dc <__sfp+0x96>
   1245c:	52048493          	addi	s1,s1,1312
   12460:	0b000993          	addi	s3,zero,176
   12464:	449c                	c.lw	a5,8(s1)
   12466:	6880                	c.ld	s0,16(s1)
   12468:	06f05663          	bge	zero,a5,124d4 <__sfp+0x8e>
   1246c:	37fd                	c.addiw	a5,-1
   1246e:	1782                	c.slli	a5,0x20
   12470:	9381                	c.srli	a5,0x20
   12472:	0785                	c.addi	a5,1
   12474:	033787b3          	mul	a5,a5,s3
   12478:	97a2                	c.add	a5,s0
   1247a:	a029                	c.j	12484 <__sfp+0x3e>
   1247c:	0b040413          	addi	s0,s0,176
   12480:	04878a63          	beq	a5,s0,124d4 <__sfp+0x8e>
   12484:	01041703          	lh	a4,16(s0)
   12488:	fb75                	c.bnez	a4,1247c <__sfp+0x36>
   1248a:	77c1                	c.lui	a5,0xffff0
   1248c:	0785                	c.addi	a5,1
   1248e:	0a042623          	sw	zero,172(s0)
   12492:	00043023          	sd	zero,0(s0)
   12496:	00043423          	sd	zero,8(s0)
   1249a:	c81c                	c.sw	a5,16(s0)
   1249c:	00043c23          	sd	zero,24(s0)
   124a0:	02042023          	sw	zero,32(s0)
   124a4:	02042423          	sw	zero,40(s0)
   124a8:	4621                	c.li	a2,8
   124aa:	4581                	c.li	a1,0
   124ac:	0a440513          	addi	a0,s0,164
   124b0:	d3ffd0ef          	jal	ra,101ee <memset>
   124b4:	04043c23          	sd	zero,88(s0)
   124b8:	06042023          	sw	zero,96(s0)
   124bc:	06043c23          	sd	zero,120(s0)
   124c0:	08042023          	sw	zero,128(s0)
   124c4:	70a2                	c.ldsp	ra,40(sp)
   124c6:	8522                	c.mv	a0,s0
   124c8:	7402                	c.ldsp	s0,32(sp)
   124ca:	64e2                	c.ldsp	s1,24(sp)
   124cc:	6942                	c.ldsp	s2,16(sp)
   124ce:	69a2                	c.ldsp	s3,8(sp)
   124d0:	6145                	c.addi16sp	sp,48
   124d2:	8082                	c.jr	ra
   124d4:	6080                	c.ld	s0,0(s1)
   124d6:	c419                	c.beqz	s0,124e4 <__sfp+0x9e>
   124d8:	84a2                	c.mv	s1,s0
   124da:	b769                	c.j	12464 <__sfp+0x1e>
   124dc:	8526                	c.mv	a0,s1
   124de:	dffff0ef          	jal	ra,122dc <__sinit.part.0>
   124e2:	bfad                	c.j	1245c <__sfp+0x16>
   124e4:	4591                	c.li	a1,4
   124e6:	854a                	c.mv	a0,s2
   124e8:	f17ff0ef          	jal	ra,123fe <__sfmoreglue>
   124ec:	e088                	c.sd	a0,0(s1)
   124ee:	842a                	c.mv	s0,a0
   124f0:	f565                	c.bnez	a0,124d8 <__sfp+0x92>
   124f2:	47b1                	c.li	a5,12
   124f4:	00f92023          	sw	a5,0(s2)
   124f8:	b7f1                	c.j	124c4 <__sfp+0x7e>

00000000000124fa <_cleanup>:
   124fa:	7481b503          	ld	a0,1864(gp) # 1e150 <_global_impure_ptr>
   124fe:	65e5                	c.lui	a1,0x19
   12500:	c6a58593          	addi	a1,a1,-918 # 18c6a <_fclose_r>
   12504:	aef5                	c.j	12900 <_fwalk_reent>

0000000000012506 <__sinit>:
   12506:	493c                	c.lw	a5,80(a0)
   12508:	c391                	c.beqz	a5,1250c <__sinit+0x6>
   1250a:	8082                	c.jr	ra
   1250c:	bbc1                	c.j	122dc <__sinit.part.0>

000000000001250e <__sfp_lock_acquire>:
   1250e:	8082                	c.jr	ra

0000000000012510 <__sfp_lock_release>:
   12510:	8082                	c.jr	ra

0000000000012512 <__sinit_lock_acquire>:
   12512:	8082                	c.jr	ra

0000000000012514 <__sinit_lock_release>:
   12514:	8082                	c.jr	ra

0000000000012516 <__fp_lock_all>:
   12516:	7581b503          	ld	a0,1880(gp) # 1e160 <_impure_ptr>
   1251a:	65c9                	c.lui	a1,0x12
   1251c:	2d058593          	addi	a1,a1,720 # 122d0 <__fp_lock>
   12520:	aeb9                	c.j	1287e <_fwalk>

0000000000012522 <__fp_unlock_all>:
   12522:	7581b503          	ld	a0,1880(gp) # 1e160 <_impure_ptr>
   12526:	65c9                	c.lui	a1,0x12
   12528:	3fa58593          	addi	a1,a1,1018 # 123fa <__fp_unlock>
   1252c:	ae89                	c.j	1287e <_fwalk>

000000000001252e <__libc_fini_array>:
   1252e:	1101                	c.addi	sp,-32
   12530:	e822                	c.sdsp	s0,16(sp)
   12532:	67f5                	c.lui	a5,0x1d
   12534:	6475                	c.lui	s0,0x1d
   12536:	01840413          	addi	s0,s0,24 # 1d018 <__do_global_dtors_aux_fini_array_entry>
   1253a:	02078793          	addi	a5,a5,32 # 1d020 <impure_data>
   1253e:	8f81                	c.sub	a5,s0
   12540:	e426                	c.sdsp	s1,8(sp)
   12542:	ec06                	c.sdsp	ra,24(sp)
   12544:	4037d493          	srai	s1,a5,0x3
   12548:	c881                	c.beqz	s1,12558 <__libc_fini_array+0x2a>
   1254a:	17e1                	c.addi	a5,-8
   1254c:	943e                	c.add	s0,a5
   1254e:	601c                	c.ld	a5,0(s0)
   12550:	14fd                	c.addi	s1,-1
   12552:	1461                	c.addi	s0,-8
   12554:	9782                	c.jalr	a5
   12556:	fce5                	c.bnez	s1,1254e <__libc_fini_array+0x20>
   12558:	60e2                	c.ldsp	ra,24(sp)
   1255a:	6442                	c.ldsp	s0,16(sp)
   1255c:	64a2                	c.ldsp	s1,8(sp)
   1255e:	6105                	c.addi16sp	sp,32
   12560:	8082                	c.jr	ra

0000000000012562 <_malloc_trim_r>:
   12562:	7179                	c.addi16sp	sp,-48
   12564:	e44e                	c.sdsp	s3,8(sp)
   12566:	69f5                	c.lui	s3,0x1d
   12568:	f022                	c.sdsp	s0,32(sp)
   1256a:	ec26                	c.sdsp	s1,24(sp)
   1256c:	e84a                	c.sdsp	s2,16(sp)
   1256e:	e052                	c.sdsp	s4,0(sp)
   12570:	f406                	c.sdsp	ra,40(sp)
   12572:	8a2e                	c.mv	s4,a1
   12574:	892a                	c.mv	s2,a0
   12576:	76898993          	addi	s3,s3,1896 # 1d768 <__malloc_av_>
   1257a:	47b020ef          	jal	ra,151f4 <__malloc_lock>
   1257e:	0109b703          	ld	a4,16(s3)
   12582:	6785                	c.lui	a5,0x1
   12584:	fdf78413          	addi	s0,a5,-33 # fdf <main-0xf0d1>
   12588:	6704                	c.ld	s1,8(a4)
   1258a:	41440433          	sub	s0,s0,s4
   1258e:	98f1                	c.andi	s1,-4
   12590:	9426                	c.add	s0,s1
   12592:	8031                	c.srli	s0,0xc
   12594:	147d                	c.addi	s0,-1
   12596:	0432                	c.slli	s0,0xc
   12598:	00f44b63          	blt	s0,a5,125ae <_malloc_trim_r+0x4c>
   1259c:	4581                	c.li	a1,0
   1259e:	854a                	c.mv	a0,s2
   125a0:	0fb030ef          	jal	ra,15e9a <_sbrk_r>
   125a4:	0109b783          	ld	a5,16(s3)
   125a8:	97a6                	c.add	a5,s1
   125aa:	00f50e63          	beq	a0,a5,125c6 <_malloc_trim_r+0x64>
   125ae:	854a                	c.mv	a0,s2
   125b0:	447020ef          	jal	ra,151f6 <__malloc_unlock>
   125b4:	70a2                	c.ldsp	ra,40(sp)
   125b6:	7402                	c.ldsp	s0,32(sp)
   125b8:	64e2                	c.ldsp	s1,24(sp)
   125ba:	6942                	c.ldsp	s2,16(sp)
   125bc:	69a2                	c.ldsp	s3,8(sp)
   125be:	6a02                	c.ldsp	s4,0(sp)
   125c0:	4501                	c.li	a0,0
   125c2:	6145                	c.addi16sp	sp,48
   125c4:	8082                	c.jr	ra
   125c6:	408005b3          	sub	a1,zero,s0
   125ca:	854a                	c.mv	a0,s2
   125cc:	0cf030ef          	jal	ra,15e9a <_sbrk_r>
   125d0:	57fd                	c.li	a5,-1
   125d2:	02f50b63          	beq	a0,a5,12608 <_malloc_trim_r+0xa6>
   125d6:	67f9                	c.lui	a5,0x1e
   125d8:	1d878793          	addi	a5,a5,472 # 1e1d8 <__malloc_current_mallinfo>
   125dc:	4398                	c.lw	a4,0(a5)
   125de:	0109b683          	ld	a3,16(s3)
   125e2:	8c81                	c.sub	s1,s0
   125e4:	0014e493          	ori	s1,s1,1
   125e8:	4087043b          	subw	s0,a4,s0
   125ec:	854a                	c.mv	a0,s2
   125ee:	e684                	c.sd	s1,8(a3)
   125f0:	c380                	c.sw	s0,0(a5)
   125f2:	405020ef          	jal	ra,151f6 <__malloc_unlock>
   125f6:	70a2                	c.ldsp	ra,40(sp)
   125f8:	7402                	c.ldsp	s0,32(sp)
   125fa:	64e2                	c.ldsp	s1,24(sp)
   125fc:	6942                	c.ldsp	s2,16(sp)
   125fe:	69a2                	c.ldsp	s3,8(sp)
   12600:	6a02                	c.ldsp	s4,0(sp)
   12602:	4505                	c.li	a0,1
   12604:	6145                	c.addi16sp	sp,48
   12606:	8082                	c.jr	ra
   12608:	4581                	c.li	a1,0
   1260a:	854a                	c.mv	a0,s2
   1260c:	08f030ef          	jal	ra,15e9a <_sbrk_r>
   12610:	0109b703          	ld	a4,16(s3)
   12614:	46fd                	c.li	a3,31
   12616:	40e507b3          	sub	a5,a0,a4
   1261a:	f8f6dae3          	bge	a3,a5,125ae <_malloc_trim_r+0x4c>
   1261e:	7601b683          	ld	a3,1888(gp) # 1e168 <__malloc_sbrk_base>
   12622:	0017e793          	ori	a5,a5,1
   12626:	e71c                	c.sd	a5,8(a4)
   12628:	8d15                	c.sub	a0,a3
   1262a:	66f9                	c.lui	a3,0x1e
   1262c:	1ca6ac23          	sw	a0,472(a3) # 1e1d8 <__malloc_current_mallinfo>
   12630:	bfbd                	c.j	125ae <_malloc_trim_r+0x4c>

0000000000012632 <_free_r>:
   12632:	c5ed                	c.beqz	a1,1271c <_free_r+0xea>
   12634:	1101                	c.addi	sp,-32
   12636:	e822                	c.sdsp	s0,16(sp)
   12638:	e426                	c.sdsp	s1,8(sp)
   1263a:	842e                	c.mv	s0,a1
   1263c:	84aa                	c.mv	s1,a0
   1263e:	ec06                	c.sdsp	ra,24(sp)
   12640:	3b5020ef          	jal	ra,151f4 <__malloc_lock>
   12644:	ff843503          	ld	a0,-8(s0)
   12648:	ff040713          	addi	a4,s0,-16
   1264c:	65f5                	c.lui	a1,0x1d
   1264e:	ffe57793          	andi	a5,a0,-2
   12652:	00f70633          	add	a2,a4,a5
   12656:	76858593          	addi	a1,a1,1896 # 1d768 <__malloc_av_>
   1265a:	6614                	c.ld	a3,8(a2)
   1265c:	0105b803          	ld	a6,16(a1)
   12660:	9af1                	c.andi	a3,-4
   12662:	14c80063          	beq	a6,a2,127a2 <_free_r+0x170>
   12666:	e614                	c.sd	a3,8(a2)
   12668:	8905                	c.andi	a0,1
   1266a:	00d60833          	add	a6,a2,a3
   1266e:	e141                	c.bnez	a0,126ee <_free_r+0xbc>
   12670:	ff043303          	ld	t1,-16(s0)
   12674:	00883803          	ld	a6,8(a6)
   12678:	6575                	c.lui	a0,0x1d
   1267a:	40670733          	sub	a4,a4,t1
   1267e:	01073883          	ld	a7,16(a4)
   12682:	77850513          	addi	a0,a0,1912 # 1d778 <__malloc_av_+0x10>
   12686:	979a                	c.add	a5,t1
   12688:	00187813          	andi	a6,a6,1
   1268c:	0ea88863          	beq	a7,a0,1277c <_free_r+0x14a>
   12690:	01873303          	ld	t1,24(a4)
   12694:	0068bc23          	sd	t1,24(a7)
   12698:	01133823          	sd	a7,16(t1)
   1269c:	14080d63          	beq	a6,zero,127f6 <_free_r+0x1c4>
   126a0:	0017e693          	ori	a3,a5,1
   126a4:	e714                	c.sd	a3,8(a4)
   126a6:	e21c                	c.sd	a5,0(a2)
   126a8:	1ff00693          	addi	a3,zero,511
   126ac:	08f6e263          	bltu	a3,a5,12730 <_free_r+0xfe>
   126b0:	838d                	c.srli	a5,0x3
   126b2:	0017869b          	addiw	a3,a5,1
   126b6:	0016969b          	slliw	a3,a3,0x1
   126ba:	068e                	c.slli	a3,0x3
   126bc:	0085b803          	ld	a6,8(a1)
   126c0:	96ae                	c.add	a3,a1
   126c2:	6288                	c.ld	a0,0(a3)
   126c4:	4027d61b          	sraiw	a2,a5,0x2
   126c8:	4785                	c.li	a5,1
   126ca:	00c797b3          	sll	a5,a5,a2
   126ce:	0107e7b3          	or	a5,a5,a6
   126d2:	ff068613          	addi	a2,a3,-16
   126d6:	ef10                	c.sd	a2,24(a4)
   126d8:	eb08                	c.sd	a0,16(a4)
   126da:	e59c                	c.sd	a5,8(a1)
   126dc:	e298                	c.sd	a4,0(a3)
   126de:	ed18                	c.sd	a4,24(a0)
   126e0:	6442                	c.ldsp	s0,16(sp)
   126e2:	60e2                	c.ldsp	ra,24(sp)
   126e4:	8526                	c.mv	a0,s1
   126e6:	64a2                	c.ldsp	s1,8(sp)
   126e8:	6105                	c.addi16sp	sp,32
   126ea:	30d0206f          	jal	zero,151f6 <__malloc_unlock>
   126ee:	00883503          	ld	a0,8(a6)
   126f2:	8905                	c.andi	a0,1
   126f4:	e50d                	c.bnez	a0,1271e <_free_r+0xec>
   126f6:	6575                	c.lui	a0,0x1d
   126f8:	97b6                	c.add	a5,a3
   126fa:	77850513          	addi	a0,a0,1912 # 1d778 <__malloc_av_+0x10>
   126fe:	6a14                	c.ld	a3,16(a2)
   12700:	0017e893          	ori	a7,a5,1
   12704:	00f70833          	add	a6,a4,a5
   12708:	10a68163          	beq	a3,a0,1280a <_free_r+0x1d8>
   1270c:	6e10                	c.ld	a2,24(a2)
   1270e:	ee90                	c.sd	a2,24(a3)
   12710:	ea14                	c.sd	a3,16(a2)
   12712:	01173423          	sd	a7,8(a4)
   12716:	00f83023          	sd	a5,0(a6)
   1271a:	b779                	c.j	126a8 <_free_r+0x76>
   1271c:	8082                	c.jr	ra
   1271e:	0017e693          	ori	a3,a5,1
   12722:	fed43c23          	sd	a3,-8(s0)
   12726:	e21c                	c.sd	a5,0(a2)
   12728:	1ff00693          	addi	a3,zero,511
   1272c:	f8f6f2e3          	bgeu	a3,a5,126b0 <_free_r+0x7e>
   12730:	0097d693          	srli	a3,a5,0x9
   12734:	4611                	c.li	a2,4
   12736:	08d66f63          	bltu	a2,a3,127d4 <_free_r+0x1a2>
   1273a:	0067d693          	srli	a3,a5,0x6
   1273e:	0396851b          	addiw	a0,a3,57
   12742:	0015151b          	slliw	a0,a0,0x1
   12746:	0386861b          	addiw	a2,a3,56
   1274a:	050e                	c.slli	a0,0x3
   1274c:	952e                	c.add	a0,a1
   1274e:	6114                	c.ld	a3,0(a0)
   12750:	1541                	c.addi	a0,-16
   12752:	0cd50563          	beq	a0,a3,1281c <_free_r+0x1ea>
   12756:	6690                	c.ld	a2,8(a3)
   12758:	9a71                	c.andi	a2,-4
   1275a:	00c7f563          	bgeu	a5,a2,12764 <_free_r+0x132>
   1275e:	6a94                	c.ld	a3,16(a3)
   12760:	fed51be3          	bne	a0,a3,12756 <_free_r+0x124>
   12764:	6e88                	c.ld	a0,24(a3)
   12766:	ef08                	c.sd	a0,24(a4)
   12768:	eb14                	c.sd	a3,16(a4)
   1276a:	6442                	c.ldsp	s0,16(sp)
   1276c:	e918                	c.sd	a4,16(a0)
   1276e:	60e2                	c.ldsp	ra,24(sp)
   12770:	8526                	c.mv	a0,s1
   12772:	64a2                	c.ldsp	s1,8(sp)
   12774:	ee98                	c.sd	a4,24(a3)
   12776:	6105                	c.addi16sp	sp,32
   12778:	27f0206f          	jal	zero,151f6 <__malloc_unlock>
   1277c:	0e081c63          	bne	a6,zero,12874 <_free_r+0x242>
   12780:	6e0c                	c.ld	a1,24(a2)
   12782:	6a10                	c.ld	a2,16(a2)
   12784:	97b6                	c.add	a5,a3
   12786:	6442                	c.ldsp	s0,16(sp)
   12788:	ee0c                	c.sd	a1,24(a2)
   1278a:	e990                	c.sd	a2,16(a1)
   1278c:	0017e693          	ori	a3,a5,1
   12790:	60e2                	c.ldsp	ra,24(sp)
   12792:	e714                	c.sd	a3,8(a4)
   12794:	8526                	c.mv	a0,s1
   12796:	973e                	c.add	a4,a5
   12798:	64a2                	c.ldsp	s1,8(sp)
   1279a:	e31c                	c.sd	a5,0(a4)
   1279c:	6105                	c.addi16sp	sp,32
   1279e:	2590206f          	jal	zero,151f6 <__malloc_unlock>
   127a2:	8905                	c.andi	a0,1
   127a4:	97b6                	c.add	a5,a3
   127a6:	e909                	c.bnez	a0,127b8 <_free_r+0x186>
   127a8:	ff043503          	ld	a0,-16(s0)
   127ac:	8f09                	c.sub	a4,a0
   127ae:	6f14                	c.ld	a3,24(a4)
   127b0:	6b10                	c.ld	a2,16(a4)
   127b2:	97aa                	c.add	a5,a0
   127b4:	ee14                	c.sd	a3,24(a2)
   127b6:	ea90                	c.sd	a2,16(a3)
   127b8:	0017e613          	ori	a2,a5,1
   127bc:	7681b683          	ld	a3,1896(gp) # 1e170 <__malloc_trim_threshold>
   127c0:	e710                	c.sd	a2,8(a4)
   127c2:	e998                	c.sd	a4,16(a1)
   127c4:	f0d7eee3          	bltu	a5,a3,126e0 <_free_r+0xae>
   127c8:	7801b583          	ld	a1,1920(gp) # 1e188 <__malloc_top_pad>
   127cc:	8526                	c.mv	a0,s1
   127ce:	d95ff0ef          	jal	ra,12562 <_malloc_trim_r>
   127d2:	b739                	c.j	126e0 <_free_r+0xae>
   127d4:	4651                	c.li	a2,20
   127d6:	02d67263          	bgeu	a2,a3,127fa <_free_r+0x1c8>
   127da:	05400613          	addi	a2,zero,84
   127de:	04d66a63          	bltu	a2,a3,12832 <_free_r+0x200>
   127e2:	00c7d693          	srli	a3,a5,0xc
   127e6:	06f6851b          	addiw	a0,a3,111
   127ea:	0015151b          	slliw	a0,a0,0x1
   127ee:	06e6861b          	addiw	a2,a3,110
   127f2:	050e                	c.slli	a0,0x3
   127f4:	bfa1                	c.j	1274c <_free_r+0x11a>
   127f6:	97b6                	c.add	a5,a3
   127f8:	b719                	c.j	126fe <_free_r+0xcc>
   127fa:	05c6851b          	addiw	a0,a3,92
   127fe:	0015151b          	slliw	a0,a0,0x1
   12802:	05b6861b          	addiw	a2,a3,91
   12806:	050e                	c.slli	a0,0x3
   12808:	b791                	c.j	1274c <_free_r+0x11a>
   1280a:	f598                	c.sd	a4,40(a1)
   1280c:	f198                	c.sd	a4,32(a1)
   1280e:	ef08                	c.sd	a0,24(a4)
   12810:	eb08                	c.sd	a0,16(a4)
   12812:	01173423          	sd	a7,8(a4)
   12816:	00f83023          	sd	a5,0(a6)
   1281a:	b5d9                	c.j	126e0 <_free_r+0xae>
   1281c:	0085b803          	ld	a6,8(a1)
   12820:	4026561b          	sraiw	a2,a2,0x2
   12824:	4785                	c.li	a5,1
   12826:	00c79633          	sll	a2,a5,a2
   1282a:	01066633          	or	a2,a2,a6
   1282e:	e590                	c.sd	a2,8(a1)
   12830:	bf1d                	c.j	12766 <_free_r+0x134>
   12832:	15400613          	addi	a2,zero,340
   12836:	00d66c63          	bltu	a2,a3,1284e <_free_r+0x21c>
   1283a:	00f7d693          	srli	a3,a5,0xf
   1283e:	0786851b          	addiw	a0,a3,120
   12842:	0015151b          	slliw	a0,a0,0x1
   12846:	0776861b          	addiw	a2,a3,119
   1284a:	050e                	c.slli	a0,0x3
   1284c:	b701                	c.j	1274c <_free_r+0x11a>
   1284e:	55400613          	addi	a2,zero,1364
   12852:	00d66c63          	bltu	a2,a3,1286a <_free_r+0x238>
   12856:	0127d693          	srli	a3,a5,0x12
   1285a:	07d6851b          	addiw	a0,a3,125
   1285e:	0015151b          	slliw	a0,a0,0x1
   12862:	07c6861b          	addiw	a2,a3,124
   12866:	050e                	c.slli	a0,0x3
   12868:	b5d5                	c.j	1274c <_free_r+0x11a>
   1286a:	7f000513          	addi	a0,zero,2032
   1286e:	07e00613          	addi	a2,zero,126
   12872:	bde9                	c.j	1274c <_free_r+0x11a>
   12874:	0017e693          	ori	a3,a5,1
   12878:	e714                	c.sd	a3,8(a4)
   1287a:	e21c                	c.sd	a5,0(a2)
   1287c:	b595                	c.j	126e0 <_free_r+0xae>

000000000001287e <_fwalk>:
   1287e:	715d                	c.addi16sp	sp,-80
   12880:	f84a                	c.sdsp	s2,48(sp)
   12882:	f44e                	c.sdsp	s3,40(sp)
   12884:	f052                	c.sdsp	s4,32(sp)
   12886:	ec56                	c.sdsp	s5,24(sp)
   12888:	e85a                	c.sdsp	s6,16(sp)
   1288a:	e45e                	c.sdsp	s7,8(sp)
   1288c:	e486                	c.sdsp	ra,72(sp)
   1288e:	e0a2                	c.sdsp	s0,64(sp)
   12890:	fc26                	c.sdsp	s1,56(sp)
   12892:	8a2e                	c.mv	s4,a1
   12894:	52050913          	addi	s2,a0,1312
   12898:	4b01                	c.li	s6,0
   1289a:	0b000a93          	addi	s5,zero,176
   1289e:	4b85                	c.li	s7,1
   128a0:	59fd                	c.li	s3,-1
   128a2:	00892783          	lw	a5,8(s2)
   128a6:	01093403          	ld	s0,16(s2)
   128aa:	02f05b63          	bge	zero,a5,128e0 <_fwalk+0x62>
   128ae:	fff7849b          	addiw	s1,a5,-1
   128b2:	1482                	c.slli	s1,0x20
   128b4:	9081                	c.srli	s1,0x20
   128b6:	0485                	c.addi	s1,1
   128b8:	035484b3          	mul	s1,s1,s5
   128bc:	94a2                	c.add	s1,s0
   128be:	01045783          	lhu	a5,16(s0)
   128c2:	00fbfb63          	bgeu	s7,a5,128d8 <_fwalk+0x5a>
   128c6:	01241783          	lh	a5,18(s0)
   128ca:	8522                	c.mv	a0,s0
   128cc:	01378663          	beq	a5,s3,128d8 <_fwalk+0x5a>
   128d0:	9a02                	c.jalr	s4
   128d2:	01656b33          	or	s6,a0,s6
   128d6:	2b01                	c.addiw	s6,0
   128d8:	0b040413          	addi	s0,s0,176
   128dc:	fe8491e3          	bne	s1,s0,128be <_fwalk+0x40>
   128e0:	00093903          	ld	s2,0(s2)
   128e4:	fa091fe3          	bne	s2,zero,128a2 <_fwalk+0x24>
   128e8:	60a6                	c.ldsp	ra,72(sp)
   128ea:	6406                	c.ldsp	s0,64(sp)
   128ec:	74e2                	c.ldsp	s1,56(sp)
   128ee:	7942                	c.ldsp	s2,48(sp)
   128f0:	79a2                	c.ldsp	s3,40(sp)
   128f2:	7a02                	c.ldsp	s4,32(sp)
   128f4:	6ae2                	c.ldsp	s5,24(sp)
   128f6:	6ba2                	c.ldsp	s7,8(sp)
   128f8:	855a                	c.mv	a0,s6
   128fa:	6b42                	c.ldsp	s6,16(sp)
   128fc:	6161                	c.addi16sp	sp,80
   128fe:	8082                	c.jr	ra

0000000000012900 <_fwalk_reent>:
   12900:	715d                	c.addi16sp	sp,-80
   12902:	f84a                	c.sdsp	s2,48(sp)
   12904:	f44e                	c.sdsp	s3,40(sp)
   12906:	f052                	c.sdsp	s4,32(sp)
   12908:	ec56                	c.sdsp	s5,24(sp)
   1290a:	e85a                	c.sdsp	s6,16(sp)
   1290c:	e45e                	c.sdsp	s7,8(sp)
   1290e:	e062                	c.sdsp	s8,0(sp)
   12910:	e486                	c.sdsp	ra,72(sp)
   12912:	e0a2                	c.sdsp	s0,64(sp)
   12914:	fc26                	c.sdsp	s1,56(sp)
   12916:	8c2a                	c.mv	s8,a0
   12918:	8a2e                	c.mv	s4,a1
   1291a:	52050913          	addi	s2,a0,1312
   1291e:	4b01                	c.li	s6,0
   12920:	0b000a93          	addi	s5,zero,176
   12924:	4b85                	c.li	s7,1
   12926:	59fd                	c.li	s3,-1
   12928:	00892783          	lw	a5,8(s2)
   1292c:	01093403          	ld	s0,16(s2)
   12930:	02f05c63          	bge	zero,a5,12968 <_fwalk_reent+0x68>
   12934:	fff7849b          	addiw	s1,a5,-1
   12938:	1482                	c.slli	s1,0x20
   1293a:	9081                	c.srli	s1,0x20
   1293c:	0485                	c.addi	s1,1
   1293e:	035484b3          	mul	s1,s1,s5
   12942:	94a2                	c.add	s1,s0
   12944:	01045783          	lhu	a5,16(s0)
   12948:	00fbfc63          	bgeu	s7,a5,12960 <_fwalk_reent+0x60>
   1294c:	01241783          	lh	a5,18(s0)
   12950:	85a2                	c.mv	a1,s0
   12952:	8562                	c.mv	a0,s8
   12954:	01378663          	beq	a5,s3,12960 <_fwalk_reent+0x60>
   12958:	9a02                	c.jalr	s4
   1295a:	01656b33          	or	s6,a0,s6
   1295e:	2b01                	c.addiw	s6,0
   12960:	0b040413          	addi	s0,s0,176
   12964:	fe8490e3          	bne	s1,s0,12944 <_fwalk_reent+0x44>
   12968:	00093903          	ld	s2,0(s2)
   1296c:	fa091ee3          	bne	s2,zero,12928 <_fwalk_reent+0x28>
   12970:	60a6                	c.ldsp	ra,72(sp)
   12972:	6406                	c.ldsp	s0,64(sp)
   12974:	74e2                	c.ldsp	s1,56(sp)
   12976:	7942                	c.ldsp	s2,48(sp)
   12978:	79a2                	c.ldsp	s3,40(sp)
   1297a:	7a02                	c.ldsp	s4,32(sp)
   1297c:	6ae2                	c.ldsp	s5,24(sp)
   1297e:	6ba2                	c.ldsp	s7,8(sp)
   12980:	6c02                	c.ldsp	s8,0(sp)
   12982:	855a                	c.mv	a0,s6
   12984:	6b42                	c.ldsp	s6,16(sp)
   12986:	6161                	c.addi16sp	sp,80
   12988:	8082                	c.jr	ra

000000000001298a <eshdn1>:
   1298a:	00450693          	addi	a3,a0,4
   1298e:	4781                	c.li	a5,0
   12990:	0569                	c.addi	a0,26
   12992:	7861                	c.lui	a6,0xffff8
   12994:	a811                	c.j	129a8 <eshdn1+0x1e>
   12996:	0017979b          	slliw	a5,a5,0x1
   1299a:	00e69023          	sh	a4,0(a3)
   1299e:	17c2                	c.slli	a5,0x30
   129a0:	0689                	c.addi	a3,2
   129a2:	93c1                	c.srli	a5,0x30
   129a4:	02d50863          	beq	a0,a3,129d4 <eshdn1+0x4a>
   129a8:	0006d703          	lhu	a4,0(a3)
   129ac:	00177613          	andi	a2,a4,1
   129b0:	c219                	c.beqz	a2,129b6 <eshdn1+0x2c>
   129b2:	0017e793          	ori	a5,a5,1
   129b6:	8305                	c.srli	a4,0x1
   129b8:	0027f613          	andi	a2,a5,2
   129bc:	010765b3          	or	a1,a4,a6
   129c0:	da79                	c.beqz	a2,12996 <eshdn1+0xc>
   129c2:	0017979b          	slliw	a5,a5,0x1
   129c6:	00b69023          	sh	a1,0(a3)
   129ca:	17c2                	c.slli	a5,0x30
   129cc:	0689                	c.addi	a3,2
   129ce:	93c1                	c.srli	a5,0x30
   129d0:	fcd51ce3          	bne	a0,a3,129a8 <eshdn1+0x1e>
   129d4:	8082                	c.jr	ra

00000000000129d6 <eshup1>:
   129d6:	01850693          	addi	a3,a0,24
   129da:	4701                	c.li	a4,0
   129dc:	0509                	c.addi	a0,2
   129de:	a811                	c.j	129f2 <eshup1+0x1c>
   129e0:	0017171b          	slliw	a4,a4,0x1
   129e4:	00f69023          	sh	a5,0(a3)
   129e8:	1742                	c.slli	a4,0x30
   129ea:	16f9                	c.addi	a3,-2
   129ec:	9341                	c.srli	a4,0x30
   129ee:	04d50063          	beq	a0,a3,12a2e <eshup1+0x58>
   129f2:	0006d783          	lhu	a5,0(a3)
   129f6:	0107961b          	slliw	a2,a5,0x10
   129fa:	4106561b          	sraiw	a2,a2,0x10
   129fe:	02061593          	slli	a1,a2,0x20
   12a02:	0017979b          	slliw	a5,a5,0x1
   12a06:	0005d463          	bge	a1,zero,12a0e <eshup1+0x38>
   12a0a:	00176713          	ori	a4,a4,1
   12a0e:	17c2                	c.slli	a5,0x30
   12a10:	93c1                	c.srli	a5,0x30
   12a12:	00277613          	andi	a2,a4,2
   12a16:	0017e593          	ori	a1,a5,1
   12a1a:	d279                	c.beqz	a2,129e0 <eshup1+0xa>
   12a1c:	0017171b          	slliw	a4,a4,0x1
   12a20:	00b69023          	sh	a1,0(a3)
   12a24:	1742                	c.slli	a4,0x30
   12a26:	16f9                	c.addi	a3,-2
   12a28:	9341                	c.srli	a4,0x30
   12a2a:	fcd514e3          	bne	a0,a3,129f2 <eshup1+0x1c>
   12a2e:	8082                	c.jr	ra

0000000000012a30 <m16m>:
   12a30:	1101                	c.addi	sp,-32
   12a32:	6e41                	c.lui	t3,0x10
   12a34:	00011b23          	sh	zero,22(sp)
   12a38:	00011c23          	sh	zero,24(sp)
   12a3c:	05e1                	c.addi	a1,24
   12a3e:	083c                	c.addi4spn	a5,sp,24
   12a40:	00410813          	addi	a6,sp,4
   12a44:	1e7d                	c.addi	t3,-1
   12a46:	0005d703          	lhu	a4,0(a1)
   12a4a:	17f9                	c.addi	a5,-2
   12a4c:	15f9                	c.addi	a1,-2
   12a4e:	e315                	c.bnez	a4,12a72 <m16m+0x42>
   12a50:	fe079f23          	sh	zero,-2(a5)
   12a54:	ff0799e3          	bne	a5,a6,12a46 <m16m+0x16>
   12a58:	0611                	c.addi	a2,4
   12a5a:	01a10693          	addi	a3,sp,26
   12a5e:	0007d703          	lhu	a4,0(a5)
   12a62:	0789                	c.addi	a5,2
   12a64:	0609                	c.addi	a2,2
   12a66:	fee61f23          	sh	a4,-2(a2)
   12a6a:	fed79ae3          	bne	a5,a3,12a5e <m16m+0x2e>
   12a6e:	6105                	c.addi16sp	sp,32
   12a70:	8082                	c.jr	ra
   12a72:	02a70733          	mul	a4,a4,a0
   12a76:	0027d883          	lhu	a7,2(a5)
   12a7a:	0007d303          	lhu	t1,0(a5)
   12a7e:	01c776b3          	and	a3,a4,t3
   12a82:	96c6                	c.add	a3,a7
   12a84:	8341                	c.srli	a4,0x10
   12a86:	0106d893          	srli	a7,a3,0x10
   12a8a:	971a                	c.add	a4,t1
   12a8c:	9746                	c.add	a4,a7
   12a8e:	01075893          	srli	a7,a4,0x10
   12a92:	00d79123          	sh	a3,2(a5)
   12a96:	00e79023          	sh	a4,0(a5)
   12a9a:	ff179f23          	sh	a7,-2(a5)
   12a9e:	fb0794e3          	bne	a5,a6,12a46 <m16m+0x16>
   12aa2:	bf5d                	c.j	12a58 <m16m+0x28>

0000000000012aa4 <eisnan.part.0>:
   12aa4:	01250713          	addi	a4,a0,18
   12aa8:	00055783          	lhu	a5,0(a0)
   12aac:	0509                	c.addi	a0,2
   12aae:	e789                	c.bnez	a5,12ab8 <eisnan.part.0+0x14>
   12ab0:	fee51ce3          	bne	a0,a4,12aa8 <eisnan.part.0+0x4>
   12ab4:	4501                	c.li	a0,0
   12ab6:	8082                	c.jr	ra
   12ab8:	4505                	c.li	a0,1
   12aba:	8082                	c.jr	ra

0000000000012abc <eneg>:
   12abc:	1101                	c.addi	sp,-32
   12abe:	e426                	c.sdsp	s1,8(sp)
   12ac0:	01255483          	lhu	s1,18(a0)
   12ac4:	e822                	c.sdsp	s0,16(sp)
   12ac6:	ec06                	c.sdsp	ra,24(sp)
   12ac8:	fff4c793          	xori	a5,s1,-1
   12acc:	03179713          	slli	a4,a5,0x31
   12ad0:	842a                	c.mv	s0,a0
   12ad2:	e701                	c.bnez	a4,12ada <eneg+0x1e>
   12ad4:	fd1ff0ef          	jal	ra,12aa4 <eisnan.part.0>
   12ad8:	e509                	c.bnez	a0,12ae2 <eneg+0x26>
   12ada:	77e1                	c.lui	a5,0xffff8
   12adc:	8cbd                	c.xor	s1,a5
   12ade:	00941923          	sh	s1,18(s0)
   12ae2:	60e2                	c.ldsp	ra,24(sp)
   12ae4:	6442                	c.ldsp	s0,16(sp)
   12ae6:	64a2                	c.ldsp	s1,8(sp)
   12ae8:	6105                	c.addi16sp	sp,32
   12aea:	8082                	c.jr	ra

0000000000012aec <eisneg>:
   12aec:	1141                	c.addi	sp,-16
   12aee:	e022                	c.sdsp	s0,0(sp)
   12af0:	01255403          	lhu	s0,18(a0)
   12af4:	e406                	c.sdsp	ra,8(sp)
   12af6:	fff44793          	xori	a5,s0,-1
   12afa:	03179713          	slli	a4,a5,0x31
   12afe:	e711                	c.bnez	a4,12b0a <eisneg+0x1e>
   12b00:	fa5ff0ef          	jal	ra,12aa4 <eisnan.part.0>
   12b04:	87aa                	c.mv	a5,a0
   12b06:	4501                	c.li	a0,0
   12b08:	e399                	c.bnez	a5,12b0e <eisneg+0x22>
   12b0a:	00f45513          	srli	a0,s0,0xf
   12b0e:	60a2                	c.ldsp	ra,8(sp)
   12b10:	6402                	c.ldsp	s0,0(sp)
   12b12:	0141                	c.addi	sp,16
   12b14:	8082                	c.jr	ra

0000000000012b16 <emovi>:
   12b16:	01255783          	lhu	a5,18(a0)
   12b1a:	7139                	c.addi16sp	sp,-64
   12b1c:	f822                	c.sdsp	s0,48(sp)
   12b1e:	00f7d79b          	srliw	a5,a5,0xf
   12b22:	f426                	c.sdsp	s1,40(sp)
   12b24:	fc06                	c.sdsp	ra,56(sp)
   12b26:	f04a                	c.sdsp	s2,32(sp)
   12b28:	ec4e                	c.sdsp	s3,24(sp)
   12b2a:	40f007bb          	subw	a5,zero,a5
   12b2e:	00f59023          	sh	a5,0(a1)
   12b32:	01255783          	lhu	a5,18(a0)
   12b36:	6721                	c.lui	a4,0x8
   12b38:	177d                	c.addi	a4,-1
   12b3a:	8ff9                	c.and	a5,a4
   12b3c:	00f59123          	sh	a5,2(a1)
   12b40:	84aa                	c.mv	s1,a0
   12b42:	01050413          	addi	s0,a0,16
   12b46:	02e78863          	beq	a5,a4,12b76 <emovi+0x60>
   12b4a:	00658793          	addi	a5,a1,6
   12b4e:	00059223          	sh	zero,4(a1)
   12b52:	1579                	c.addi	a0,-2
   12b54:	00045703          	lhu	a4,0(s0)
   12b58:	1479                	c.addi	s0,-2
   12b5a:	0789                	c.addi	a5,2
   12b5c:	fee79f23          	sh	a4,-2(a5) # ffffffffffff7ffe <__BSS_END__+0xfffffffffffd9df6>
   12b60:	fe851ae3          	bne	a0,s0,12b54 <emovi+0x3e>
   12b64:	00059c23          	sh	zero,24(a1)
   12b68:	70e2                	c.ldsp	ra,56(sp)
   12b6a:	7442                	c.ldsp	s0,48(sp)
   12b6c:	74a2                	c.ldsp	s1,40(sp)
   12b6e:	7902                	c.ldsp	s2,32(sp)
   12b70:	69e2                	c.ldsp	s3,24(sp)
   12b72:	6121                	c.addi16sp	sp,64
   12b74:	8082                	c.jr	ra
   12b76:	0007869b          	addiw	a3,a5,0
   12b7a:	01255783          	lhu	a5,18(a0)
   12b7e:	00458913          	addi	s2,a1,4
   12b82:	8ff5                	c.and	a5,a3
   12b84:	02d79663          	bne	a5,a3,12bb0 <emovi+0x9a>
   12b88:	e42e                	c.sdsp	a1,8(sp)
   12b8a:	f1bff0ef          	jal	ra,12aa4 <eisnan.part.0>
   12b8e:	65a2                	c.ldsp	a1,8(sp)
   12b90:	c105                	c.beqz	a0,12bb0 <emovi+0x9a>
   12b92:	00658793          	addi	a5,a1,6
   12b96:	00059223          	sh	zero,4(a1)
   12b9a:	ffc48513          	addi	a0,s1,-4
   12b9e:	00045703          	lhu	a4,0(s0)
   12ba2:	1479                	c.addi	s0,-2
   12ba4:	0789                	c.addi	a5,2
   12ba6:	fee79f23          	sh	a4,-2(a5)
   12baa:	fe851ae3          	bne	a0,s0,12b9e <emovi+0x88>
   12bae:	bf6d                	c.j	12b68 <emovi+0x52>
   12bb0:	01a58993          	addi	s3,a1,26
   12bb4:	0909                	c.addi	s2,2
   12bb6:	fe091f23          	sh	zero,-2(s2)
   12bba:	ff299de3          	bne	s3,s2,12bb4 <emovi+0x9e>
   12bbe:	70e2                	c.ldsp	ra,56(sp)
   12bc0:	7442                	c.ldsp	s0,48(sp)
   12bc2:	74a2                	c.ldsp	s1,40(sp)
   12bc4:	7902                	c.ldsp	s2,32(sp)
   12bc6:	69e2                	c.ldsp	s3,24(sp)
   12bc8:	6121                	c.addi16sp	sp,64
   12bca:	8082                	c.jr	ra

0000000000012bcc <ecmp>:
   12bcc:	01255783          	lhu	a5,18(a0)
   12bd0:	711d                	c.addi16sp	sp,-96
   12bd2:	e8a2                	c.sdsp	s0,80(sp)
   12bd4:	fff7c793          	xori	a5,a5,-1
   12bd8:	e4a6                	c.sdsp	s1,72(sp)
   12bda:	ec86                	c.sdsp	ra,88(sp)
   12bdc:	03179713          	slli	a4,a5,0x31
   12be0:	84aa                	c.mv	s1,a0
   12be2:	842e                	c.mv	s0,a1
   12be4:	e701                	c.bnez	a4,12bec <ecmp+0x20>
   12be6:	ebfff0ef          	jal	ra,12aa4 <eisnan.part.0>
   12bea:	ed39                	c.bnez	a0,12c48 <ecmp+0x7c>
   12bec:	01245783          	lhu	a5,18(s0)
   12bf0:	fff7c793          	xori	a5,a5,-1
   12bf4:	03179713          	slli	a4,a5,0x31
   12bf8:	c721                	c.beqz	a4,12c40 <ecmp+0x74>
   12bfa:	858a                	c.mv	a1,sp
   12bfc:	8526                	c.mv	a0,s1
   12bfe:	f19ff0ef          	jal	ra,12b16 <emovi>
   12c02:	100c                	c.addi4spn	a1,sp,32
   12c04:	8522                	c.mv	a0,s0
   12c06:	f11ff0ef          	jal	ra,12b16 <emovi>
   12c0a:	00015583          	lhu	a1,0(sp)
   12c0e:	02015783          	lhu	a5,32(sp)
   12c12:	02b78d63          	beq	a5,a1,12c4c <ecmp+0x80>
   12c16:	00210793          	addi	a5,sp,2
   12c1a:	02210713          	addi	a4,sp,34
   12c1e:	0830                	c.addi4spn	a2,sp,24
   12c20:	0007d683          	lhu	a3,0(a5)
   12c24:	0789                	c.addi	a5,2
   12c26:	e2ad                	c.bnez	a3,12c88 <ecmp+0xbc>
   12c28:	00075683          	lhu	a3,0(a4) # 8000 <main-0x80b0>
   12c2c:	0709                	c.addi	a4,2
   12c2e:	eea9                	c.bnez	a3,12c88 <ecmp+0xbc>
   12c30:	fec798e3          	bne	a5,a2,12c20 <ecmp+0x54>
   12c34:	4501                	c.li	a0,0
   12c36:	60e6                	c.ldsp	ra,88(sp)
   12c38:	6446                	c.ldsp	s0,80(sp)
   12c3a:	64a6                	c.ldsp	s1,72(sp)
   12c3c:	6125                	c.addi16sp	sp,96
   12c3e:	8082                	c.jr	ra
   12c40:	8522                	c.mv	a0,s0
   12c42:	e63ff0ef          	jal	ra,12aa4 <eisnan.part.0>
   12c46:	d955                	c.beqz	a0,12bfa <ecmp+0x2e>
   12c48:	5579                	c.li	a0,-2
   12c4a:	b7f5                	c.j	12c36 <ecmp+0x6a>
   12c4c:	4505                	c.li	a0,1
   12c4e:	e1a9                	c.bnez	a1,12c90 <ecmp+0xc4>
   12c50:	00215603          	lhu	a2,2(sp)
   12c54:	02215683          	lhu	a3,34(sp)
   12c58:	00210713          	addi	a4,sp,2
   12c5c:	02210793          	addi	a5,sp,34
   12c60:	182c                	c.addi4spn	a1,sp,56
   12c62:	0789                	c.addi	a5,2
   12c64:	0709                	c.addi	a4,2
   12c66:	00d61c63          	bne	a2,a3,12c7e <ecmp+0xb2>
   12c6a:	fcb785e3          	beq	a5,a1,12c34 <ecmp+0x68>
   12c6e:	00075603          	lhu	a2,0(a4)
   12c72:	0007d683          	lhu	a3,0(a5)
   12c76:	0709                	c.addi	a4,2
   12c78:	0789                	c.addi	a5,2
   12c7a:	fed608e3          	beq	a2,a3,12c6a <ecmp+0x9e>
   12c7e:	fac6ece3          	bltu	a3,a2,12c36 <ecmp+0x6a>
   12c82:	40a0053b          	subw	a0,zero,a0
   12c86:	bf45                	c.j	12c36 <ecmp+0x6a>
   12c88:	4505                	c.li	a0,1
   12c8a:	d5d5                	c.beqz	a1,12c36 <ecmp+0x6a>
   12c8c:	557d                	c.li	a0,-1
   12c8e:	b765                	c.j	12c36 <ecmp+0x6a>
   12c90:	557d                	c.li	a0,-1
   12c92:	bf7d                	c.j	12c50 <ecmp+0x84>

0000000000012c94 <eisinf.part.0>:
   12c94:	1141                	c.addi	sp,-16
   12c96:	e406                	c.sdsp	ra,8(sp)
   12c98:	e0dff0ef          	jal	ra,12aa4 <eisnan.part.0>
   12c9c:	60a2                	c.ldsp	ra,8(sp)
   12c9e:	00153513          	sltiu	a0,a0,1
   12ca2:	0141                	c.addi	sp,16
   12ca4:	8082                	c.jr	ra

0000000000012ca6 <eshift.part.0>:
   12ca6:	7179                	c.addi16sp	sp,-48
   12ca8:	f022                	c.sdsp	s0,32(sp)
   12caa:	ec26                	c.sdsp	s1,24(sp)
   12cac:	f406                	c.sdsp	ra,40(sp)
   12cae:	e84a                	c.sdsp	s2,16(sp)
   12cb0:	e44e                	c.sdsp	s3,8(sp)
   12cb2:	84ae                	c.mv	s1,a1
   12cb4:	842a                	c.mv	s0,a0
   12cb6:	0605cb63          	blt	a1,zero,12d2c <eshift.part.0+0x86>
   12cba:	47bd                	c.li	a5,15
   12cbc:	862e                	c.mv	a2,a1
   12cbe:	0511                	c.addi	a0,4
   12cc0:	01840693          	addi	a3,s0,24
   12cc4:	45bd                	c.li	a1,15
   12cc6:	0297d063          	bge	a5,s1,12ce6 <eshift.part.0+0x40>
   12cca:	87aa                	c.mv	a5,a0
   12ccc:	0027d703          	lhu	a4,2(a5)
   12cd0:	0789                	c.addi	a5,2
   12cd2:	fee79f23          	sh	a4,-2(a5)
   12cd6:	fed79be3          	bne	a5,a3,12ccc <eshift.part.0+0x26>
   12cda:	00041c23          	sh	zero,24(s0)
   12cde:	3641                	c.addiw	a2,-16
   12ce0:	fec5c5e3          	blt	a1,a2,12cca <eshift.part.0+0x24>
   12ce4:	88bd                	c.andi	s1,15
   12ce6:	479d                	c.li	a5,7
   12ce8:	0297d463          	bge	a5,s1,12d10 <eshift.part.0+0x6a>
   12cec:	01840713          	addi	a4,s0,24
   12cf0:	00240593          	addi	a1,s0,2
   12cf4:	4781                	c.li	a5,0
   12cf6:	00075683          	lhu	a3,0(a4)
   12cfa:	1779                	c.addi	a4,-2
   12cfc:	00869613          	slli	a2,a3,0x8
   12d00:	8fd1                	c.or	a5,a2
   12d02:	00f71123          	sh	a5,2(a4)
   12d06:	0086d793          	srli	a5,a3,0x8
   12d0a:	feb716e3          	bne	a4,a1,12cf6 <eshift.part.0+0x50>
   12d0e:	34e1                	c.addiw	s1,-8
   12d10:	c491                	c.beqz	s1,12d1c <eshift.part.0+0x76>
   12d12:	34fd                	c.addiw	s1,-1
   12d14:	8522                	c.mv	a0,s0
   12d16:	cc1ff0ef          	jal	ra,129d6 <eshup1>
   12d1a:	fce5                	c.bnez	s1,12d12 <eshift.part.0+0x6c>
   12d1c:	4501                	c.li	a0,0
   12d1e:	70a2                	c.ldsp	ra,40(sp)
   12d20:	7402                	c.ldsp	s0,32(sp)
   12d22:	64e2                	c.ldsp	s1,24(sp)
   12d24:	6942                	c.ldsp	s2,16(sp)
   12d26:	69a2                	c.ldsp	s3,8(sp)
   12d28:	6145                	c.addi16sp	sp,48
   12d2a:	8082                	c.jr	ra
   12d2c:	57c5                	c.li	a5,-15
   12d2e:	40b0093b          	subw	s2,zero,a1
   12d32:	0ef5d463          	bge	a1,a5,12e1a <eshift.part.0+0x174>
   12d36:	01850593          	addi	a1,a0,24
   12d3a:	4981                	c.li	s3,0
   12d3c:	00450693          	addi	a3,a0,4
   12d40:	463d                	c.li	a2,15
   12d42:	01845703          	lhu	a4,24(s0)
   12d46:	87ae                	c.mv	a5,a1
   12d48:	00e9e9b3          	or	s3,s3,a4
   12d4c:	ffe7d703          	lhu	a4,-2(a5)
   12d50:	17f9                	c.addi	a5,-2
   12d52:	00e79123          	sh	a4,2(a5)
   12d56:	fed79be3          	bne	a5,a3,12d4c <eshift.part.0+0xa6>
   12d5a:	00041223          	sh	zero,4(s0)
   12d5e:	3941                	c.addiw	s2,-16
   12d60:	ff2641e3          	blt	a2,s2,12d42 <eshift.part.0+0x9c>
   12d64:	57c1                	c.li	a5,-16
   12d66:	5745                	c.li	a4,-15
   12d68:	9f85                	c.subw	a5,s1
   12d6a:	4901                	c.li	s2,0
   12d6c:	08e4c063          	blt	s1,a4,12dec <eshift.part.0+0x146>
   12d70:	00f9093b          	addw	s2,s2,a5
   12d74:	479d                	c.li	a5,7
   12d76:	0327df63          	bge	a5,s2,12db4 <eshift.part.0+0x10e>
   12d7a:	0109999b          	slliw	s3,s3,0x10
   12d7e:	4109d99b          	sraiw	s3,s3,0x10
   12d82:	01844783          	lbu	a5,24(s0)
   12d86:	01a40593          	addi	a1,s0,26
   12d8a:	00f9e9b3          	or	s3,s3,a5
   12d8e:	19c2                	c.slli	s3,0x30
   12d90:	0309d993          	srli	s3,s3,0x30
   12d94:	4781                	c.li	a5,0
   12d96:	0006d603          	lhu	a2,0(a3)
   12d9a:	0689                	c.addi	a3,2
   12d9c:	0086571b          	srliw	a4,a2,0x8
   12da0:	8f5d                	c.or	a4,a5
   12da2:	0086179b          	slliw	a5,a2,0x8
   12da6:	17c2                	c.slli	a5,0x30
   12da8:	fee69f23          	sh	a4,-2(a3)
   12dac:	93c1                	c.srli	a5,0x30
   12dae:	feb694e3          	bne	a3,a1,12d96 <eshift.part.0+0xf0>
   12db2:	3961                	c.addiw	s2,-8
   12db4:	04090b63          	beq	s2,zero,12e0a <eshift.part.0+0x164>
   12db8:	01845783          	lhu	a5,24(s0)
   12dbc:	397d                	c.addiw	s2,-1
   12dbe:	8522                	c.mv	a0,s0
   12dc0:	8b85                	c.andi	a5,1
   12dc2:	0137e9b3          	or	s3,a5,s3
   12dc6:	bc5ff0ef          	jal	ra,1298a <eshdn1>
   12dca:	fe0917e3          	bne	s2,zero,12db8 <eshift.part.0+0x112>
   12dce:	0109979b          	slliw	a5,s3,0x10
   12dd2:	4107d79b          	sraiw	a5,a5,0x10
   12dd6:	e78d                	c.bnez	a5,12e00 <eshift.part.0+0x15a>
   12dd8:	03099513          	slli	a0,s3,0x30
   12ddc:	9141                	c.srli	a0,0x30
   12dde:	70a2                	c.ldsp	ra,40(sp)
   12de0:	7402                	c.ldsp	s0,32(sp)
   12de2:	64e2                	c.ldsp	s1,24(sp)
   12de4:	6942                	c.ldsp	s2,16(sp)
   12de6:	69a2                	c.ldsp	s3,8(sp)
   12de8:	6145                	c.addi16sp	sp,48
   12dea:	8082                	c.jr	ra
   12dec:	ff07f913          	andi	s2,a5,-16
   12df0:	4120093b          	subw	s2,zero,s2
   12df4:	00f9093b          	addw	s2,s2,a5
   12df8:	479d                	c.li	a5,7
   12dfa:	fb27dde3          	bge	a5,s2,12db4 <eshift.part.0+0x10e>
   12dfe:	bfb5                	c.j	12d7a <eshift.part.0+0xd4>
   12e00:	4985                	c.li	s3,1
   12e02:	03099513          	slli	a0,s3,0x30
   12e06:	9141                	c.srli	a0,0x30
   12e08:	bfd9                	c.j	12dde <eshift.part.0+0x138>
   12e0a:	854e                	c.mv	a0,s3
   12e0c:	00099563          	bne	s3,zero,12e16 <eshift.part.0+0x170>
   12e10:	1542                	c.slli	a0,0x30
   12e12:	9141                	c.srli	a0,0x30
   12e14:	b729                	c.j	12d1e <eshift.part.0+0x78>
   12e16:	4505                	c.li	a0,1
   12e18:	bfe5                	c.j	12e10 <eshift.part.0+0x16a>
   12e1a:	57e5                	c.li	a5,-7
   12e1c:	4981                	c.li	s3,0
   12e1e:	f8f5dde3          	bge	a1,a5,12db8 <eshift.part.0+0x112>
   12e22:	00440693          	addi	a3,s0,4
   12e26:	bfb1                	c.j	12d82 <eshift.part.0+0xdc>

0000000000012e28 <enormlz>:
   12e28:	00455783          	lhu	a5,4(a0)
   12e2c:	1101                	c.addi	sp,-32
   12e2e:	e426                	c.sdsp	s1,8(sp)
   12e30:	ec06                	c.sdsp	ra,24(sp)
   12e32:	e822                	c.sdsp	s0,16(sp)
   12e34:	e04a                	c.sdsp	s2,0(sp)
   12e36:	84aa                	c.mv	s1,a0
   12e38:	ebc5                	c.bnez	a5,12ee8 <enormlz+0xc0>
   12e3a:	00655703          	lhu	a4,6(a0)
   12e3e:	4401                	c.li	s0,0
   12e40:	0107179b          	slliw	a5,a4,0x10
   12e44:	4107d79b          	sraiw	a5,a5,0x10
   12e48:	02079693          	slli	a3,a5,0x20
   12e4c:	0806c763          	blt	a3,zero,12eda <enormlz+0xb2>
   12e50:	01a50693          	addi	a3,a0,26
   12e54:	0a000613          	addi	a2,zero,160
   12e58:	e31d                	c.bnez	a4,12e7e <enormlz+0x56>
   12e5a:	00648793          	addi	a5,s1,6
   12e5e:	a019                	c.j	12e64 <enormlz+0x3c>
   12e60:	0007d703          	lhu	a4,0(a5)
   12e64:	0789                	c.addi	a5,2
   12e66:	fee79e23          	sh	a4,-4(a5)
   12e6a:	fef69be3          	bne	a3,a5,12e60 <enormlz+0x38>
   12e6e:	00049c23          	sh	zero,24(s1)
   12e72:	2441                	c.addiw	s0,16
   12e74:	06c40363          	beq	s0,a2,12eda <enormlz+0xb2>
   12e78:	0064d703          	lhu	a4,6(s1)
   12e7c:	df79                	c.beqz	a4,12e5a <enormlz+0x32>
   12e7e:	f0077793          	andi	a5,a4,-256
   12e82:	eb8d                	c.bnez	a5,12eb4 <enormlz+0x8c>
   12e84:	01848513          	addi	a0,s1,24
   12e88:	00248593          	addi	a1,s1,2
   12e8c:	4781                	c.li	a5,0
   12e8e:	872a                	c.mv	a4,a0
   12e90:	00075683          	lhu	a3,0(a4)
   12e94:	1779                	c.addi	a4,-2
   12e96:	00869613          	slli	a2,a3,0x8
   12e9a:	8fd1                	c.or	a5,a2
   12e9c:	00f71123          	sh	a5,2(a4)
   12ea0:	0086d793          	srli	a5,a3,0x8
   12ea4:	fee596e3          	bne	a1,a4,12e90 <enormlz+0x68>
   12ea8:	0064d703          	lhu	a4,6(s1)
   12eac:	2421                	c.addiw	s0,8
   12eae:	f0077793          	andi	a5,a4,-256
   12eb2:	dfe9                	c.beqz	a5,12e8c <enormlz+0x64>
   12eb4:	0a000913          	addi	s2,zero,160
   12eb8:	a801                	c.j	12ec8 <enormlz+0xa0>
   12eba:	2405                	c.addiw	s0,1
   12ebc:	b1bff0ef          	jal	ra,129d6 <eshup1>
   12ec0:	00894d63          	blt	s2,s0,12eda <enormlz+0xb2>
   12ec4:	0064d703          	lhu	a4,6(s1)
   12ec8:	0107171b          	slliw	a4,a4,0x10
   12ecc:	4107571b          	sraiw	a4,a4,0x10
   12ed0:	02071793          	slli	a5,a4,0x20
   12ed4:	8526                	c.mv	a0,s1
   12ed6:	fe07d2e3          	bge	a5,zero,12eba <enormlz+0x92>
   12eda:	60e2                	c.ldsp	ra,24(sp)
   12edc:	8522                	c.mv	a0,s0
   12ede:	6442                	c.ldsp	s0,16(sp)
   12ee0:	64a2                	c.ldsp	s1,8(sp)
   12ee2:	6902                	c.ldsp	s2,0(sp)
   12ee4:	6105                	c.addi16sp	sp,32
   12ee6:	8082                	c.jr	ra
   12ee8:	f007f713          	andi	a4,a5,-256
   12eec:	4401                	c.li	s0,0
   12eee:	e705                	c.bnez	a4,12f16 <enormlz+0xee>
   12ef0:	f6f00913          	addi	s2,zero,-145
   12ef4:	a801                	c.j	12f04 <enormlz+0xdc>
   12ef6:	347d                	c.addiw	s0,-1
   12ef8:	a93ff0ef          	jal	ra,1298a <eshdn1>
   12efc:	fd240fe3          	beq	s0,s2,12eda <enormlz+0xb2>
   12f00:	0044d783          	lhu	a5,4(s1)
   12f04:	8526                	c.mv	a0,s1
   12f06:	fbe5                	c.bnez	a5,12ef6 <enormlz+0xce>
   12f08:	60e2                	c.ldsp	ra,24(sp)
   12f0a:	8522                	c.mv	a0,s0
   12f0c:	6442                	c.ldsp	s0,16(sp)
   12f0e:	64a2                	c.ldsp	s1,8(sp)
   12f10:	6902                	c.ldsp	s2,0(sp)
   12f12:	6105                	c.addi16sp	sp,32
   12f14:	8082                	c.jr	ra
   12f16:	00450693          	addi	a3,a0,4
   12f1a:	01a50593          	addi	a1,a0,26
   12f1e:	4701                	c.li	a4,0
   12f20:	a019                	c.j	12f26 <enormlz+0xfe>
   12f22:	0006d783          	lhu	a5,0(a3)
   12f26:	0087d61b          	srliw	a2,a5,0x8
   12f2a:	8f51                	c.or	a4,a2
   12f2c:	0087979b          	slliw	a5,a5,0x8
   12f30:	00e69023          	sh	a4,0(a3)
   12f34:	03079713          	slli	a4,a5,0x30
   12f38:	0689                	c.addi	a3,2
   12f3a:	9341                	c.srli	a4,0x30
   12f3c:	feb693e3          	bne	a3,a1,12f22 <enormlz+0xfa>
   12f40:	0044d783          	lhu	a5,4(s1)
   12f44:	5461                	c.li	s0,-8
   12f46:	b76d                	c.j	12ef0 <enormlz+0xc8>

0000000000012f48 <emdnorm>:
   12f48:	7139                	c.addi16sp	sp,-64
   12f4a:	f822                	c.sdsp	s0,48(sp)
   12f4c:	f426                	c.sdsp	s1,40(sp)
   12f4e:	f04a                	c.sdsp	s2,32(sp)
   12f50:	ec4e                	c.sdsp	s3,24(sp)
   12f52:	e852                	c.sdsp	s4,16(sp)
   12f54:	e456                	c.sdsp	s5,8(sp)
   12f56:	8936                	c.mv	s2,a3
   12f58:	84be                	c.mv	s1,a5
   12f5a:	fc06                	c.sdsp	ra,56(sp)
   12f5c:	842a                	c.mv	s0,a0
   12f5e:	89ae                	c.mv	s3,a1
   12f60:	8a32                	c.mv	s4,a2
   12f62:	8aba                	c.mv	s5,a4
   12f64:	ec5ff0ef          	jal	ra,12e28 <enormlz>
   12f68:	09000793          	addi	a5,zero,144
   12f6c:	40a90933          	sub	s2,s2,a0
   12f70:	12a7db63          	bge	a5,a0,130a6 <emdnorm+0x15e>
   12f74:	67a1                	c.lui	a5,0x8
   12f76:	17f9                	c.addi	a5,-2
   12f78:	1927dd63          	bge	a5,s2,13112 <emdnorm+0x1ca>
   12f7c:	160a8b63          	beq	s5,zero,130f2 <emdnorm+0x1aa>
   12f80:	40c8                	c.lw	a0,4(s1)
   12f82:	409c                	c.lw	a5,0(s1)
   12f84:	04a78e63          	beq	a5,a0,12fe0 <emdnorm+0x98>
   12f88:	01a48713          	addi	a4,s1,26
   12f8c:	03448793          	addi	a5,s1,52
   12f90:	0709                	c.addi	a4,2
   12f92:	fe071f23          	sh	zero,-2(a4)
   12f96:	fef71de3          	bne	a4,a5,12f90 <emdnorm+0x48>
   12f9a:	03800793          	addi	a5,zero,56
   12f9e:	28f50263          	beq	a0,a5,13222 <emdnorm+0x2da>
   12fa2:	12a7d163          	bge	a5,a0,130c4 <emdnorm+0x17c>
   12fa6:	04000793          	addi	a5,zero,64
   12faa:	24f50c63          	beq	a0,a5,13202 <emdnorm+0x2ba>
   12fae:	07100793          	addi	a5,zero,113
   12fb2:	28f51163          	bne	a0,a5,13234 <emdnorm+0x2ec>
   12fb6:	47a9                	c.li	a5,10
   12fb8:	40008737          	lui	a4,0x40008
   12fbc:	177d                	c.addi	a4,-1
   12fbe:	1782                	c.slli	a5,0x20
   12fc0:	07a9                	c.addi	a5,10
   12fc2:	c8d8                	c.sw	a4,20(s1)
   12fc4:	7761                	c.lui	a4,0xffff8
   12fc6:	00e49c23          	sh	a4,24(s1)
   12fca:	e49c                	c.sd	a5,8(s1)
   12fcc:	6721                	c.lui	a4,0x8
   12fce:	47a9                	c.li	a5,10
   12fd0:	07a1                	c.addi	a5,8
   12fd2:	0786                	c.slli	a5,0x1
   12fd4:	97a6                	c.add	a5,s1
   12fd6:	00e79523          	sh	a4,10(a5) # 800a <main-0x80a6>
   12fda:	c088                	c.sw	a0,0(s1)
   12fdc:	17205163          	bge	zero,s2,1313e <emdnorm+0x1f6>
   12fe0:	4494                	c.lw	a3,8(s1)
   12fe2:	0144d603          	lhu	a2,20(s1)
   12fe6:	08f00793          	addi	a5,zero,143
   12fea:	00169713          	slli	a4,a3,0x1
   12fee:	00e40833          	add	a6,s0,a4
   12ff2:	00085883          	lhu	a7,0(a6) # ffffffffffff8000 <__BSS_END__+0xfffffffffffd9df8>
   12ff6:	00c8f5b3          	and	a1,a7,a2
   12ffa:	02a7ce63          	blt	a5,a0,13036 <emdnorm+0xee>
   12ffe:	47ad                	c.li	a5,11
   13000:	02d7cb63          	blt	a5,a3,13036 <emdnorm+0xee>
   13004:	9f95                	c.subw	a5,a3
   13006:	1782                	c.slli	a5,0x20
   13008:	9381                	c.srli	a5,0x20
   1300a:	97b6                	c.add	a5,a3
   1300c:	00179693          	slli	a3,a5,0x1
   13010:	0709                	c.addi	a4,2
   13012:	00440793          	addi	a5,s0,4
   13016:	9722                	c.add	a4,s0
   13018:	97b6                	c.add	a5,a3
   1301a:	00075683          	lhu	a3,0(a4) # 8000 <main-0x80b0>
   1301e:	c299                	c.beqz	a3,13024 <emdnorm+0xdc>
   13020:	0015e593          	ori	a1,a1,1
   13024:	00071023          	sh	zero,0(a4)
   13028:	0709                	c.addi	a4,2
   1302a:	fee798e3          	bne	a5,a4,1301a <emdnorm+0xd2>
   1302e:	00085883          	lhu	a7,0(a6)
   13032:	0144d603          	lhu	a2,20(s1)
   13036:	fff64613          	xori	a2,a2,-1
   1303a:	01167633          	and	a2,a2,a7
   1303e:	00c81023          	sh	a2,0(a6)
   13042:	0164d783          	lhu	a5,22(s1)
   13046:	00b7f733          	and	a4,a5,a1
   1304a:	cb05                	c.beqz	a4,1307a <emdnorm+0x132>
   1304c:	12b78f63          	beq	a5,a1,1318a <emdnorm+0x242>
   13050:	03248613          	addi	a2,s1,50
   13054:	01840693          	addi	a3,s0,24
   13058:	04f1                	c.addi	s1,28
   1305a:	4701                	c.li	a4,0
   1305c:	00065783          	lhu	a5,0(a2)
   13060:	0006d583          	lhu	a1,0(a3)
   13064:	16f9                	c.addi	a3,-2
   13066:	1679                	c.addi	a2,-2
   13068:	97ae                	c.add	a5,a1
   1306a:	97ba                	c.add	a5,a4
   1306c:	0107d713          	srli	a4,a5,0x10
   13070:	00f69123          	sh	a5,2(a3)
   13074:	8b05                	c.andi	a4,1
   13076:	fe9613e3          	bne	a2,s1,1305c <emdnorm+0x114>
   1307a:	13205663          	bge	zero,s2,131a6 <emdnorm+0x25e>
   1307e:	00445783          	lhu	a5,4(s0)
   13082:	e7ed                	c.bnez	a5,1316c <emdnorm+0x224>
   13084:	67a1                	c.lui	a5,0x8
   13086:	00041c23          	sh	zero,24(s0)
   1308a:	17f9                	c.addi	a5,-2
   1308c:	0727c563          	blt	a5,s2,130f6 <emdnorm+0x1ae>
   13090:	01241123          	sh	s2,2(s0)
   13094:	70e2                	c.ldsp	ra,56(sp)
   13096:	7442                	c.ldsp	s0,48(sp)
   13098:	74a2                	c.ldsp	s1,40(sp)
   1309a:	7902                	c.ldsp	s2,32(sp)
   1309c:	69e2                	c.ldsp	s3,24(sp)
   1309e:	6a42                	c.ldsp	s4,16(sp)
   130a0:	6aa2                	c.ldsp	s5,8(sp)
   130a2:	6121                	c.addi16sp	sp,64
   130a4:	8082                	c.jr	ra
   130a6:	0a095a63          	bge	s2,zero,1315a <emdnorm+0x212>
   130aa:	f7000793          	addi	a5,zero,-144
   130ae:	06f95b63          	bge	s2,a5,13124 <emdnorm+0x1dc>
   130b2:	00240793          	addi	a5,s0,2
   130b6:	0469                	c.addi	s0,26
   130b8:	0789                	c.addi	a5,2
   130ba:	fe079f23          	sh	zero,-2(a5) # 7ffe <main-0x80b2>
   130be:	fe879de3          	bne	a5,s0,130b8 <emdnorm+0x170>
   130c2:	bfc9                	c.j	13094 <emdnorm+0x14c>
   130c4:	47e1                	c.li	a5,24
   130c6:	10f50f63          	beq	a0,a5,131e4 <emdnorm+0x29c>
   130ca:	03500793          	addi	a5,zero,53
   130ce:	16f51363          	bne	a0,a5,13234 <emdnorm+0x2ec>
   130d2:	040006b7          	lui	a3,0x4000
   130d6:	6705                	c.lui	a4,0x1
   130d8:	7ff68693          	addi	a3,a3,2047 # 40007ff <__BSS_END__+0x3fe25f7>
   130dc:	4799                	c.li	a5,6
   130de:	80070713          	addi	a4,a4,-2048 # 800 <main-0xf8b0>
   130e2:	c8d4                	c.sw	a3,20(s1)
   130e4:	1782                	c.slli	a5,0x20
   130e6:	0799                	c.addi	a5,6
   130e8:	e49c                	c.sd	a5,8(s1)
   130ea:	00e49c23          	sh	a4,24(s1)
   130ee:	4799                	c.li	a5,6
   130f0:	b5c5                	c.j	12fd0 <emdnorm+0x88>
   130f2:	00041c23          	sh	zero,24(s0)
   130f6:	77e1                	c.lui	a5,0xffff8
   130f8:	fff7c793          	xori	a5,a5,-1
   130fc:	00f41123          	sh	a5,2(s0)
   13100:	00440793          	addi	a5,s0,4
   13104:	0461                	c.addi	s0,24
   13106:	00079023          	sh	zero,0(a5) # ffffffffffff8000 <__BSS_END__+0xfffffffffffd9df8>
   1310a:	0789                	c.addi	a5,2
   1310c:	fef41de3          	bne	s0,a5,13106 <emdnorm+0x1be>
   13110:	b751                	c.j	13094 <emdnorm+0x14c>
   13112:	00240793          	addi	a5,s0,2
   13116:	0469                	c.addi	s0,26
   13118:	0789                	c.addi	a5,2
   1311a:	fe079f23          	sh	zero,-2(a5)
   1311e:	fe879de3          	bne	a5,s0,13118 <emdnorm+0x1d0>
   13122:	bf8d                	c.j	13094 <emdnorm+0x14c>
   13124:	0009059b          	addiw	a1,s2,0
   13128:	8522                	c.mv	a0,s0
   1312a:	b7dff0ef          	jal	ra,12ca6 <eshift.part.0>
   1312e:	c111                	c.beqz	a0,13132 <emdnorm+0x1ea>
   13130:	4985                	c.li	s3,1
   13132:	0a0a8463          	beq	s5,zero,131da <emdnorm+0x292>
   13136:	40c8                	c.lw	a0,4(s1)
   13138:	409c                	c.lw	a5,0(s1)
   1313a:	e4a797e3          	bne	a5,a0,12f88 <emdnorm+0x40>
   1313e:	09000793          	addi	a5,zero,144
   13142:	08f50163          	beq	a0,a5,131c4 <emdnorm+0x27c>
   13146:	01845783          	lhu	a5,24(s0)
   1314a:	8522                	c.mv	a0,s0
   1314c:	8b85                	c.andi	a5,1
   1314e:	0137e9b3          	or	s3,a5,s3
   13152:	839ff0ef          	jal	ra,1298a <eshdn1>
   13156:	40c8                	c.lw	a0,4(s1)
   13158:	b561                	c.j	12fe0 <emdnorm+0x98>
   1315a:	f20a85e3          	beq	s5,zero,13084 <emdnorm+0x13c>
   1315e:	40c8                	c.lw	a0,4(s1)
   13160:	409c                	c.lw	a5,0(s1)
   13162:	e2a793e3          	bne	a5,a0,12f88 <emdnorm+0x40>
   13166:	e7204de3          	blt	zero,s2,12fe0 <emdnorm+0x98>
   1316a:	bfd1                	c.j	1313e <emdnorm+0x1f6>
   1316c:	8522                	c.mv	a0,s0
   1316e:	81dff0ef          	jal	ra,1298a <eshdn1>
   13172:	67a1                	c.lui	a5,0x8
   13174:	0905                	c.addi	s2,1
   13176:	00041c23          	sh	zero,24(s0)
   1317a:	17f9                	c.addi	a5,-2
   1317c:	f727cde3          	blt	a5,s2,130f6 <emdnorm+0x1ae>
   13180:	f00958e3          	bge	s2,zero,13090 <emdnorm+0x148>
   13184:	00041123          	sh	zero,2(s0)
   13188:	b731                	c.j	13094 <emdnorm+0x14c>
   1318a:	08099963          	bne	s3,zero,1321c <emdnorm+0x2d4>
   1318e:	44dc                	c.lw	a5,12(s1)
   13190:	0184d703          	lhu	a4,24(s1)
   13194:	0786                	c.slli	a5,0x1
   13196:	97a2                	c.add	a5,s0
   13198:	0007d783          	lhu	a5,0(a5) # 8000 <main-0x80b0>
   1319c:	8ff9                	c.and	a5,a4
   1319e:	ea0799e3          	bne	a5,zero,13050 <emdnorm+0x108>
   131a2:	ed204ee3          	blt	zero,s2,1307e <emdnorm+0x136>
   131a6:	09000793          	addi	a5,zero,144
   131aa:	00f50563          	beq	a0,a5,131b4 <emdnorm+0x26c>
   131ae:	8522                	c.mv	a0,s0
   131b0:	827ff0ef          	jal	ra,129d6 <eshup1>
   131b4:	00445783          	lhu	a5,4(s0)
   131b8:	fbd5                	c.bnez	a5,1316c <emdnorm+0x224>
   131ba:	00041c23          	sh	zero,24(s0)
   131be:	fc0943e3          	blt	s2,zero,13184 <emdnorm+0x23c>
   131c2:	b5f9                	c.j	13090 <emdnorm+0x148>
   131c4:	0084a803          	lw	a6,8(s1)
   131c8:	0144d603          	lhu	a2,20(s1)
   131cc:	0806                	c.slli	a6,0x1
   131ce:	9822                	c.add	a6,s0
   131d0:	00085883          	lhu	a7,0(a6)
   131d4:	011675b3          	and	a1,a2,a7
   131d8:	bdb9                	c.j	13036 <emdnorm+0xee>
   131da:	00041c23          	sh	zero,24(s0)
   131de:	00041123          	sh	zero,2(s0)
   131e2:	bd4d                	c.j	13094 <emdnorm+0x14c>
   131e4:	4791                	c.li	a5,4
   131e6:	00800737          	lui	a4,0x800
   131ea:	0ff70713          	addi	a4,a4,255 # 8000ff <__BSS_END__+0x7e1ef7>
   131ee:	1782                	c.slli	a5,0x20
   131f0:	0791                	c.addi	a5,4
   131f2:	c8d8                	c.sw	a4,20(s1)
   131f4:	10000713          	addi	a4,zero,256
   131f8:	e49c                	c.sd	a5,8(s1)
   131fa:	00e49c23          	sh	a4,24(s1)
   131fe:	4791                	c.li	a5,4
   13200:	bbc1                	c.j	12fd0 <emdnorm+0x88>
   13202:	478d                	c.li	a5,3
   13204:	80010737          	lui	a4,0x80010
   13208:	177d                	c.addi	a4,-1
   1320a:	1786                	c.slli	a5,0x21
   1320c:	079d                	c.addi	a5,7
   1320e:	c8d8                	c.sw	a4,20(s1)
   13210:	4705                	c.li	a4,1
   13212:	e49c                	c.sd	a5,8(s1)
   13214:	00e49c23          	sh	a4,24(s1)
   13218:	4799                	c.li	a5,6
   1321a:	bb5d                	c.j	12fd0 <emdnorm+0x88>
   1321c:	e20a0ae3          	beq	s4,zero,13050 <emdnorm+0x108>
   13220:	bda9                	c.j	1307a <emdnorm+0x132>
   13222:	00800737          	lui	a4,0x800
   13226:	0ff70713          	addi	a4,a4,255 # 8000ff <__BSS_END__+0x7e1ef7>
   1322a:	c8d8                	c.sw	a4,20(s1)
   1322c:	4799                	c.li	a5,6
   1322e:	10000713          	addi	a4,zero,256
   13232:	bd4d                	c.j	130e4 <emdnorm+0x19c>
   13234:	47ad                	c.li	a5,11
   13236:	80010737          	lui	a4,0x80010
   1323a:	177d                	c.addi	a4,-1
   1323c:	1782                	c.slli	a5,0x20
   1323e:	07b1                	c.addi	a5,12
   13240:	c8d8                	c.sw	a4,20(s1)
   13242:	4705                	c.li	a4,1
   13244:	e49c                	c.sd	a5,8(s1)
   13246:	00e49c23          	sh	a4,24(s1)
   1324a:	47ad                	c.li	a5,11
   1324c:	b351                	c.j	12fd0 <emdnorm+0x88>

000000000001324e <eiremain>:
   1324e:	711d                	c.addi16sp	sp,-96
   13250:	e4a6                	c.sdsp	s1,72(sp)
   13252:	fc4e                	c.sdsp	s3,56(sp)
   13254:	84ae                	c.mv	s1,a1
   13256:	00255983          	lhu	s3,2(a0)
   1325a:	ec86                	c.sdsp	ra,88(sp)
   1325c:	e8a2                	c.sdsp	s0,80(sp)
   1325e:	e0ca                	c.sdsp	s2,64(sp)
   13260:	f852                	c.sdsp	s4,48(sp)
   13262:	8932                	c.mv	s2,a2
   13264:	f456                	c.sdsp	s5,40(sp)
   13266:	f05a                	c.sdsp	s6,32(sp)
   13268:	ec5e                	c.sdsp	s7,24(sp)
   1326a:	e862                	c.sdsp	s8,16(sp)
   1326c:	e466                	c.sdsp	s9,8(sp)
   1326e:	e06a                	c.sdsp	s10,0(sp)
   13270:	8a2a                	c.mv	s4,a0
   13272:	bb7ff0ef          	jal	ra,12e28 <enormlz>
   13276:	0024d403          	lhu	s0,2(s1)
   1327a:	87aa                	c.mv	a5,a0
   1327c:	8526                	c.mv	a0,s1
   1327e:	40f989b3          	sub	s3,s3,a5
   13282:	03490a93          	addi	s5,s2,52
   13286:	ba3ff0ef          	jal	ra,12e28 <enormlz>
   1328a:	8c09                	c.sub	s0,a0
   1328c:	04e90713          	addi	a4,s2,78
   13290:	87d6                	c.mv	a5,s5
   13292:	0789                	c.addi	a5,2
   13294:	fe079f23          	sh	zero,-2(a5)
   13298:	fee79de3          	bne	a5,a4,13292 <eiremain+0x44>
   1329c:	07344b63          	blt	s0,s3,13312 <eiremain+0xc4>
   132a0:	004a0b93          	addi	s7,s4,4
   132a4:	00448b13          	addi	s6,s1,4
   132a8:	19fd                	c.addi	s3,-1
   132aa:	01aa0c93          	addi	s9,s4,26
   132ae:	00248c13          	addi	s8,s1,2
   132b2:	875a                	c.mv	a4,s6
   132b4:	87de                	c.mv	a5,s7
   132b6:	0007d603          	lhu	a2,0(a5)
   132ba:	00075683          	lhu	a3,0(a4) # ffffffff80010000 <__BSS_END__+0xffffffff7fff1df8>
   132be:	0789                	c.addi	a5,2
   132c0:	0709                	c.addi	a4,2
   132c2:	06d61c63          	bne	a2,a3,1333a <eiremain+0xec>
   132c6:	fefc98e3          	bne	s9,a5,132b6 <eiremain+0x68>
   132ca:	018a0613          	addi	a2,s4,24
   132ce:	01848713          	addi	a4,s1,24
   132d2:	4681                	c.li	a3,0
   132d4:	00075783          	lhu	a5,0(a4)
   132d8:	00065583          	lhu	a1,0(a2)
   132dc:	1779                	c.addi	a4,-2
   132de:	8f95                	c.sub	a5,a3
   132e0:	8f8d                	c.sub	a5,a1
   132e2:	0107d693          	srli	a3,a5,0x10
   132e6:	00f71123          	sh	a5,2(a4)
   132ea:	8a85                	c.andi	a3,1
   132ec:	1679                	c.addi	a2,-2
   132ee:	feec13e3          	bne	s8,a4,132d4 <eiremain+0x86>
   132f2:	4d05                	c.li	s10,1
   132f4:	8556                	c.mv	a0,s5
   132f6:	ee0ff0ef          	jal	ra,129d6 <eshup1>
   132fa:	04c95783          	lhu	a5,76(s2)
   132fe:	147d                	c.addi	s0,-1
   13300:	8526                	c.mv	a0,s1
   13302:	00fd6d33          	or	s10,s10,a5
   13306:	05a91623          	sh	s10,76(s2)
   1330a:	eccff0ef          	jal	ra,129d6 <eshup1>
   1330e:	fb3412e3          	bne	s0,s3,132b2 <eiremain+0x64>
   13312:	86a2                	c.mv	a3,s0
   13314:	6446                	c.ldsp	s0,80(sp)
   13316:	60e6                	c.ldsp	ra,88(sp)
   13318:	79e2                	c.ldsp	s3,56(sp)
   1331a:	7a42                	c.ldsp	s4,48(sp)
   1331c:	7aa2                	c.ldsp	s5,40(sp)
   1331e:	7b02                	c.ldsp	s6,32(sp)
   13320:	6be2                	c.ldsp	s7,24(sp)
   13322:	6c42                	c.ldsp	s8,16(sp)
   13324:	6ca2                	c.ldsp	s9,8(sp)
   13326:	6d02                	c.ldsp	s10,0(sp)
   13328:	87ca                	c.mv	a5,s2
   1332a:	8526                	c.mv	a0,s1
   1332c:	6906                	c.ldsp	s2,64(sp)
   1332e:	64a6                	c.ldsp	s1,72(sp)
   13330:	4701                	c.li	a4,0
   13332:	4601                	c.li	a2,0
   13334:	4581                	c.li	a1,0
   13336:	6125                	c.addi16sp	sp,96
   13338:	b901                	c.j	12f48 <emdnorm>
   1333a:	4d01                	c.li	s10,0
   1333c:	fac6ece3          	bltu	a3,a2,132f4 <eiremain+0xa6>
   13340:	b769                	c.j	132ca <eiremain+0x7c>

0000000000013342 <emovo.isra.0>:
   13342:	00055703          	lhu	a4,0(a0)
   13346:	00255783          	lhu	a5,2(a0)
   1334a:	c319                	c.beqz	a4,13350 <emovo.isra.0+0xe>
   1334c:	6721                	c.lui	a4,0x8
   1334e:	8fd9                	c.or	a5,a4
   13350:	00f59923          	sh	a5,18(a1)
   13354:	00255703          	lhu	a4,2(a0)
   13358:	67a1                	c.lui	a5,0x8
   1335a:	17fd                	c.addi	a5,-1
   1335c:	00f70f63          	beq	a4,a5,1337a <emovo.isra.0+0x38>
   13360:	00650793          	addi	a5,a0,6
   13364:	05c1                	c.addi	a1,16
   13366:	0561                	c.addi	a0,24
   13368:	0007d703          	lhu	a4,0(a5) # 8000 <main-0x80b0>
   1336c:	0789                	c.addi	a5,2
   1336e:	15f9                	c.addi	a1,-2
   13370:	00e59123          	sh	a4,2(a1)
   13374:	fea79ae3          	bne	a5,a0,13368 <emovo.isra.0+0x26>
   13378:	8082                	c.jr	ra
   1337a:	00650793          	addi	a5,a0,6
   1337e:	0569                	c.addi	a0,26
   13380:	0007d703          	lhu	a4,0(a5)
   13384:	0789                	c.addi	a5,2
   13386:	e31d                	c.bnez	a4,133ac <emovo.isra.0+0x6a>
   13388:	fea79ce3          	bne	a5,a0,13380 <emovo.isra.0+0x3e>
   1338c:	01258713          	addi	a4,a1,18
   13390:	87ae                	c.mv	a5,a1
   13392:	0789                	c.addi	a5,2
   13394:	fe079f23          	sh	zero,-2(a5)
   13398:	fef71de3          	bne	a4,a5,13392 <emovo.isra.0+0x50>
   1339c:	0125d783          	lhu	a5,18(a1)
   133a0:	6721                	c.lui	a4,0x8
   133a2:	177d                	c.addi	a4,-1
   133a4:	8fd9                	c.or	a5,a4
   133a6:	00f59923          	sh	a5,18(a1)
   133aa:	8082                	c.jr	ra
   133ac:	01058713          	addi	a4,a1,16
   133b0:	87ae                	c.mv	a5,a1
   133b2:	0789                	c.addi	a5,2
   133b4:	fe079f23          	sh	zero,-2(a5)
   133b8:	fef71de3          	bne	a4,a5,133b2 <emovo.isra.0+0x70>
   133bc:	7fffc7b7          	lui	a5,0x7fffc
   133c0:	c99c                	c.sw	a5,16(a1)
   133c2:	8082                	c.jr	ra

00000000000133c4 <emul>:
   133c4:	7131                	c.addi16sp	sp,-192
   133c6:	e15a                	c.sdsp	s6,128(sp)
   133c8:	01255b03          	lhu	s6,18(a0)
   133cc:	67a1                	c.lui	a5,0x8
   133ce:	17fd                	c.addi	a5,-1
   133d0:	e952                	c.sdsp	s4,144(sp)
   133d2:	0167fa33          	and	s4,a5,s6
   133d6:	1a42                	c.slli	s4,0x30
   133d8:	f922                	c.sdsp	s0,176(sp)
   133da:	f526                	c.sdsp	s1,168(sp)
   133dc:	f14a                	c.sdsp	s2,160(sp)
   133de:	ed4e                	c.sdsp	s3,152(sp)
   133e0:	fd06                	c.sdsp	ra,184(sp)
   133e2:	e556                	c.sdsp	s5,136(sp)
   133e4:	fcde                	c.sdsp	s7,120(sp)
   133e6:	f8e2                	c.sdsp	s8,112(sp)
   133e8:	f4e6                	c.sdsp	s9,104(sp)
   133ea:	030a5a13          	srli	s4,s4,0x30
   133ee:	84aa                	c.mv	s1,a0
   133f0:	892e                	c.mv	s2,a1
   133f2:	8432                	c.mv	s0,a2
   133f4:	89b6                	c.mv	s3,a3
   133f6:	0cfa1163          	bne	s4,a5,134b8 <emul+0xf4>
   133fa:	eaaff0ef          	jal	ra,12aa4 <eisnan.part.0>
   133fe:	1e051963          	bne	a0,zero,135f0 <emul+0x22c>
   13402:	01295a83          	lhu	s5,18(s2)
   13406:	015a77b3          	and	a5,s4,s5
   1340a:	1f478e63          	beq	a5,s4,13606 <emul+0x242>
   1340e:	8526                	c.mv	a0,s1
   13410:	885ff0ef          	jal	ra,12c94 <eisinf.part.0>
   13414:	22050d63          	beq	a0,zero,1364e <emul+0x28a>
   13418:	65f1                	c.lui	a1,0x1c
   1341a:	3a858593          	addi	a1,a1,936 # 1c3a8 <ezero>
   1341e:	854a                	c.mv	a0,s2
   13420:	facff0ef          	jal	ra,12bcc <ecmp>
   13424:	28050a63          	beq	a0,zero,136b8 <emul+0x2f4>
   13428:	01295a83          	lhu	s5,18(s2)
   1342c:	67a1                	c.lui	a5,0x8
   1342e:	17fd                	c.addi	a5,-1
   13430:	0157fab3          	and	s5,a5,s5
   13434:	1ac2                	c.slli	s5,0x30
   13436:	030ada93          	srli	s5,s5,0x30
   1343a:	20fa9863          	bne	s5,a5,1364a <emul+0x286>
   1343e:	854a                	c.mv	a0,s2
   13440:	855ff0ef          	jal	ra,12c94 <eisinf.part.0>
   13444:	24051c63          	bne	a0,zero,1369c <emul+0x2d8>
   13448:	0124d783          	lhu	a5,18(s1)
   1344c:	00faf7b3          	and	a5,s5,a5
   13450:	07579c63          	bne	a5,s5,134c8 <emul+0x104>
   13454:	8526                	c.mv	a0,s1
   13456:	83fff0ef          	jal	ra,12c94 <eisinf.part.0>
   1345a:	e509                	c.bnez	a0,13464 <emul+0xa0>
   1345c:	854a                	c.mv	a0,s2
   1345e:	837ff0ef          	jal	ra,12c94 <eisinf.part.0>
   13462:	c13d                	c.beqz	a0,134c8 <emul+0x104>
   13464:	8526                	c.mv	a0,s1
   13466:	e86ff0ef          	jal	ra,12aec <eisneg>
   1346a:	84aa                	c.mv	s1,a0
   1346c:	854a                	c.mv	a0,s2
   1346e:	e7eff0ef          	jal	ra,12aec <eisneg>
   13472:	40a48533          	sub	a0,s1,a0
   13476:	00a03533          	sltu	a0,zero,a0
   1347a:	053e                	c.slli	a0,0xf
   1347c:	00a41923          	sh	a0,18(s0)
   13480:	01240713          	addi	a4,s0,18
   13484:	87a2                	c.mv	a5,s0
   13486:	0789                	c.addi	a5,2
   13488:	fe079f23          	sh	zero,-2(a5) # 7ffe <main-0x80b2>
   1348c:	fef71de3          	bne	a4,a5,13486 <emul+0xc2>
   13490:	01245783          	lhu	a5,18(s0)
   13494:	6721                	c.lui	a4,0x8
   13496:	177d                	c.addi	a4,-1
   13498:	8fd9                	c.or	a5,a4
   1349a:	00f41923          	sh	a5,18(s0)
   1349e:	70ea                	c.ldsp	ra,184(sp)
   134a0:	744a                	c.ldsp	s0,176(sp)
   134a2:	74aa                	c.ldsp	s1,168(sp)
   134a4:	790a                	c.ldsp	s2,160(sp)
   134a6:	69ea                	c.ldsp	s3,152(sp)
   134a8:	6a4a                	c.ldsp	s4,144(sp)
   134aa:	6aaa                	c.ldsp	s5,136(sp)
   134ac:	6b0a                	c.ldsp	s6,128(sp)
   134ae:	7be6                	c.ldsp	s7,120(sp)
   134b0:	7c46                	c.ldsp	s8,112(sp)
   134b2:	7ca6                	c.ldsp	s9,104(sp)
   134b4:	6129                	c.addi16sp	sp,192
   134b6:	8082                	c.jr	ra
   134b8:	0125da83          	lhu	s5,18(a1)
   134bc:	0157f733          	and	a4,a5,s5
   134c0:	1742                	c.slli	a4,0x30
   134c2:	9341                	c.srli	a4,0x30
   134c4:	02f70f63          	beq	a4,a5,13502 <emul+0x13e>
   134c8:	8526                	c.mv	a0,s1
   134ca:	858a                	c.mv	a1,sp
   134cc:	e4aff0ef          	jal	ra,12b16 <emovi>
   134d0:	854a                	c.mv	a0,s2
   134d2:	100c                	c.addi4spn	a1,sp,32
   134d4:	e42ff0ef          	jal	ra,12b16 <emovi>
   134d8:	00215483          	lhu	s1,2(sp)
   134dc:	02215903          	lhu	s2,34(sp)
   134e0:	e0a1                	c.bnez	s1,13520 <emul+0x15c>
   134e2:	005c                	c.addi4spn	a5,sp,4
   134e4:	0834                	c.addi4spn	a3,sp,24
   134e6:	18f68b63          	beq	a3,a5,1367c <emul+0x2b8>
   134ea:	0007d703          	lhu	a4,0(a5)
   134ee:	0789                	c.addi	a5,2
   134f0:	db7d                	c.beqz	a4,134e6 <emul+0x122>
   134f2:	850a                	c.mv	a0,sp
   134f4:	935ff0ef          	jal	ra,12e28 <enormlz>
   134f8:	02215703          	lhu	a4,34(sp)
   134fc:	40a004b3          	sub	s1,zero,a0
   13500:	a00d                	c.j	13522 <emul+0x15e>
   13502:	852e                	c.mv	a0,a1
   13504:	da0ff0ef          	jal	ra,12aa4 <eisnan.part.0>
   13508:	d115                	c.beqz	a0,1342c <emul+0x68>
   1350a:	01490713          	addi	a4,s2,20
   1350e:	00095783          	lhu	a5,0(s2)
   13512:	0909                	c.addi	s2,2
   13514:	0409                	c.addi	s0,2
   13516:	fef41f23          	sh	a5,-2(s0)
   1351a:	fee91ae3          	bne	s2,a4,1350e <emul+0x14a>
   1351e:	b741                	c.j	1349e <emul+0xda>
   13520:	874a                	c.mv	a4,s2
   13522:	8aca                	c.mv	s5,s2
   13524:	105c                	c.addi4spn	a5,sp,36
   13526:	1834                	c.addi4spn	a3,sp,56
   13528:	ef11                	c.bnez	a4,13544 <emul+0x180>
   1352a:	16f68163          	beq	a3,a5,1368c <emul+0x2c8>
   1352e:	0007d703          	lhu	a4,0(a5)
   13532:	0789                	c.addi	a5,2
   13534:	db7d                	c.beqz	a4,1352a <emul+0x166>
   13536:	1008                	c.addi4spn	a0,sp,32
   13538:	8f1ff0ef          	jal	ra,12e28 <enormlz>
   1353c:	02215703          	lhu	a4,34(sp)
   13540:	40a90ab3          	sub	s5,s2,a0
   13544:	02015783          	lhu	a5,32(sp)
   13548:	03898c13          	addi	s8,s3,56
   1354c:	02e99b23          	sh	a4,54(s3)
   13550:	02f99a23          	sh	a5,52(s3)
   13554:	04e98713          	addi	a4,s3,78
   13558:	87e2                	c.mv	a5,s8
   1355a:	00079023          	sh	zero,0(a5)
   1355e:	0789                	c.addi	a5,2
   13560:	fef71de3          	bne	a4,a5,1355a <emul+0x196>
   13564:	04c98a13          	addi	s4,s3,76
   13568:	4b81                	c.li	s7,0
   1356a:	01810913          	addi	s2,sp,24
   1356e:	00410c93          	addi	s9,sp,4
   13572:	04210b13          	addi	s6,sp,66
   13576:	00095503          	lhu	a0,0(s2)
   1357a:	1979                	c.addi	s2,-2
   1357c:	e145                	c.bnez	a0,1361c <emul+0x258>
   1357e:	04c9d703          	lhu	a4,76(s3)
   13582:	87d2                	c.mv	a5,s4
   13584:	00ebebb3          	or	s7,s7,a4
   13588:	ffe7d703          	lhu	a4,-2(a5)
   1358c:	17f9                	c.addi	a5,-2
   1358e:	00e79123          	sh	a4,2(a5)
   13592:	ff879be3          	bne	a5,s8,13588 <emul+0x1c4>
   13596:	02099c23          	sh	zero,56(s3)
   1359a:	fd991ee3          	bne	s2,s9,13576 <emul+0x1b2>
   1359e:	03498713          	addi	a4,s3,52
   135a2:	101c                	c.addi4spn	a5,sp,32
   135a4:	03a10593          	addi	a1,sp,58
   135a8:	00075603          	lhu	a2,0(a4) # 8000 <main-0x80b0>
   135ac:	0789                	c.addi	a5,2
   135ae:	0709                	c.addi	a4,2
   135b0:	fec79f23          	sh	a2,-2(a5)
   135b4:	fef59ae3          	bne	a1,a5,135a8 <emul+0x1e4>
   135b8:	76f1                	c.lui	a3,0xffffc
   135ba:	94d6                	c.add	s1,s5
   135bc:	0689                	c.addi	a3,2
   135be:	85de                	c.mv	a1,s7
   135c0:	1008                	c.addi4spn	a0,sp,32
   135c2:	87ce                	c.mv	a5,s3
   135c4:	04000713          	addi	a4,zero,64
   135c8:	96a6                	c.add	a3,s1
   135ca:	4601                	c.li	a2,0
   135cc:	97dff0ef          	jal	ra,12f48 <emdnorm>
   135d0:	02015703          	lhu	a4,32(sp)
   135d4:	00015783          	lhu	a5,0(sp)
   135d8:	85a2                	c.mv	a1,s0
   135da:	1008                	c.addi4spn	a0,sp,32
   135dc:	8f99                	c.sub	a5,a4
   135de:	00f037b3          	sltu	a5,zero,a5
   135e2:	40f007bb          	subw	a5,zero,a5
   135e6:	02f11023          	sh	a5,32(sp)
   135ea:	d59ff0ef          	jal	ra,13342 <emovo.isra.0>
   135ee:	bd45                	c.j	1349e <emul+0xda>
   135f0:	01448713          	addi	a4,s1,20
   135f4:	0004d783          	lhu	a5,0(s1)
   135f8:	0489                	c.addi	s1,2
   135fa:	0409                	c.addi	s0,2
   135fc:	fef41f23          	sh	a5,-2(s0)
   13600:	fee49ae3          	bne	s1,a4,135f4 <emul+0x230>
   13604:	bd69                	c.j	1349e <emul+0xda>
   13606:	854a                	c.mv	a0,s2
   13608:	c9cff0ef          	jal	ra,12aa4 <eisnan.part.0>
   1360c:	ee051fe3          	bne	a0,zero,1350a <emul+0x146>
   13610:	8526                	c.mv	a0,s1
   13612:	e82ff0ef          	jal	ra,12c94 <eisinf.part.0>
   13616:	e0050be3          	beq	a0,zero,1342c <emul+0x68>
   1361a:	bbfd                	c.j	13418 <emul+0x54>
   1361c:	0090                	c.addi4spn	a2,sp,64
   1361e:	100c                	c.addi4spn	a1,sp,32
   13620:	c10ff0ef          	jal	ra,12a30 <m16m>
   13624:	85d2                	c.mv	a1,s4
   13626:	4601                	c.li	a2,0
   13628:	08b8                	c.addi4spn	a4,sp,88
   1362a:	0005d803          	lhu	a6,0(a1)
   1362e:	00075783          	lhu	a5,0(a4)
   13632:	15f9                	c.addi	a1,-2
   13634:	1779                	c.addi	a4,-2
   13636:	97c2                	c.add	a5,a6
   13638:	97b2                	c.add	a5,a2
   1363a:	0107d613          	srli	a2,a5,0x10
   1363e:	00f59123          	sh	a5,2(a1)
   13642:	8a05                	c.andi	a2,1
   13644:	ff6713e3          	bne	a4,s6,1362a <emul+0x266>
   13648:	bf1d                	c.j	1357e <emul+0x1ba>
   1364a:	0124db03          	lhu	s6,18(s1)
   1364e:	67a1                	c.lui	a5,0x8
   13650:	17fd                	c.addi	a5,-1
   13652:	0167fb33          	and	s6,a5,s6
   13656:	1b42                	c.slli	s6,0x30
   13658:	030b5b13          	srli	s6,s6,0x30
   1365c:	e6fb16e3          	bne	s6,a5,134c8 <emul+0x104>
   13660:	8526                	c.mv	a0,s1
   13662:	e32ff0ef          	jal	ra,12c94 <eisinf.part.0>
   13666:	de051fe3          	bne	a0,zero,13464 <emul+0xa0>
   1366a:	01295783          	lhu	a5,18(s2)
   1366e:	fff7c793          	xori	a5,a5,-1
   13672:	03179713          	slli	a4,a5,0x31
   13676:	e40719e3          	bne	a4,zero,134c8 <emul+0x104>
   1367a:	b3cd                	c.j	1345c <emul+0x98>
   1367c:	01440793          	addi	a5,s0,20
   13680:	0409                	c.addi	s0,2
   13682:	fe041f23          	sh	zero,-2(s0)
   13686:	fef41de3          	bne	s0,a5,13680 <emul+0x2bc>
   1368a:	bd11                	c.j	1349e <emul+0xda>
   1368c:	01440793          	addi	a5,s0,20
   13690:	0409                	c.addi	s0,2
   13692:	fe041f23          	sh	zero,-2(s0)
   13696:	fef41de3          	bne	s0,a5,13690 <emul+0x2cc>
   1369a:	b511                	c.j	1349e <emul+0xda>
   1369c:	65f1                	c.lui	a1,0x1c
   1369e:	3a858593          	addi	a1,a1,936 # 1c3a8 <ezero>
   136a2:	8526                	c.mv	a0,s1
   136a4:	d28ff0ef          	jal	ra,12bcc <ecmp>
   136a8:	c901                	c.beqz	a0,136b8 <emul+0x2f4>
   136aa:	0124d783          	lhu	a5,18(s1)
   136ae:	00faf7b3          	and	a5,s5,a5
   136b2:	fb5787e3          	beq	a5,s5,13660 <emul+0x29c>
   136b6:	bf55                	c.j	1366a <emul+0x2a6>
   136b8:	01040713          	addi	a4,s0,16
   136bc:	87a2                	c.mv	a5,s0
   136be:	0789                	c.addi	a5,2
   136c0:	fe079f23          	sh	zero,-2(a5) # 7ffe <main-0x80b2>
   136c4:	fee79de3          	bne	a5,a4,136be <emul+0x2fa>
   136c8:	7fffc7b7          	lui	a5,0x7fffc
   136cc:	c81c                	c.sw	a5,16(s0)
   136ce:	bbc1                	c.j	1349e <emul+0xda>

00000000000136d0 <ediv>:
   136d0:	01255783          	lhu	a5,18(a0)
   136d4:	7115                	c.addi16sp	sp,-224
   136d6:	e9a2                	c.sdsp	s0,208(sp)
   136d8:	fff7c793          	xori	a5,a5,-1
   136dc:	e5a6                	c.sdsp	s1,200(sp)
   136de:	e1ca                	c.sdsp	s2,192(sp)
   136e0:	fd4e                	c.sdsp	s3,184(sp)
   136e2:	ed86                	c.sdsp	ra,216(sp)
   136e4:	f952                	c.sdsp	s4,176(sp)
   136e6:	f556                	c.sdsp	s5,168(sp)
   136e8:	f15a                	c.sdsp	s6,160(sp)
   136ea:	ed5e                	c.sdsp	s7,152(sp)
   136ec:	e962                	c.sdsp	s8,144(sp)
   136ee:	e566                	c.sdsp	s9,136(sp)
   136f0:	e16a                	c.sdsp	s10,128(sp)
   136f2:	fcee                	c.sdsp	s11,120(sp)
   136f4:	03179713          	slli	a4,a5,0x31
   136f8:	892a                	c.mv	s2,a0
   136fa:	89ae                	c.mv	s3,a1
   136fc:	8432                	c.mv	s0,a2
   136fe:	84b6                	c.mv	s1,a3
   13700:	e709                	c.bnez	a4,1370a <ediv+0x3a>
   13702:	ba2ff0ef          	jal	ra,12aa4 <eisnan.part.0>
   13706:	2a051163          	bne	a0,zero,139a8 <ediv+0x2d8>
   1370a:	0129d783          	lhu	a5,18(s3)
   1370e:	fff7c793          	xori	a5,a5,-1
   13712:	03179713          	slli	a4,a5,0x31
   13716:	c725                	c.beqz	a4,1377e <ediv+0xae>
   13718:	6a71                	c.lui	s4,0x1c
   1371a:	3a8a0593          	addi	a1,s4,936 # 1c3a8 <ezero>
   1371e:	854a                	c.mv	a0,s2
   13720:	cacff0ef          	jal	ra,12bcc <ecmp>
   13724:	cd55                	c.beqz	a0,137e0 <ediv+0x110>
   13726:	01295a03          	lhu	s4,18(s2)
   1372a:	0129d703          	lhu	a4,18(s3)
   1372e:	67a1                	c.lui	a5,0x8
   13730:	17fd                	c.addi	a5,-1
   13732:	0147fa33          	and	s4,a5,s4
   13736:	00e7fab3          	and	s5,a5,a4
   1373a:	06fa1163          	bne	s4,a5,1379c <ediv+0xcc>
   1373e:	854a                	c.mv	a0,s2
   13740:	d54ff0ef          	jal	ra,12c94 <eisinf.part.0>
   13744:	c161                	c.beqz	a0,13804 <ediv+0x134>
   13746:	014a9663          	bne	s5,s4,13752 <ediv+0x82>
   1374a:	854e                	c.mv	a0,s3
   1374c:	d48ff0ef          	jal	ra,12c94 <eisinf.part.0>
   13750:	ed51                	c.bnez	a0,137ec <ediv+0x11c>
   13752:	01440793          	addi	a5,s0,20
   13756:	0409                	c.addi	s0,2
   13758:	fe041f23          	sh	zero,-2(s0)
   1375c:	fef41de3          	bne	s0,a5,13756 <ediv+0x86>
   13760:	60ee                	c.ldsp	ra,216(sp)
   13762:	644e                	c.ldsp	s0,208(sp)
   13764:	64ae                	c.ldsp	s1,200(sp)
   13766:	690e                	c.ldsp	s2,192(sp)
   13768:	79ea                	c.ldsp	s3,184(sp)
   1376a:	7a4a                	c.ldsp	s4,176(sp)
   1376c:	7aaa                	c.ldsp	s5,168(sp)
   1376e:	7b0a                	c.ldsp	s6,160(sp)
   13770:	6bea                	c.ldsp	s7,152(sp)
   13772:	6c4a                	c.ldsp	s8,144(sp)
   13774:	6caa                	c.ldsp	s9,136(sp)
   13776:	6d0a                	c.ldsp	s10,128(sp)
   13778:	7de6                	c.ldsp	s11,120(sp)
   1377a:	612d                	c.addi16sp	sp,224
   1377c:	8082                	c.jr	ra
   1377e:	854e                	c.mv	a0,s3
   13780:	b24ff0ef          	jal	ra,12aa4 <eisnan.part.0>
   13784:	d951                	c.beqz	a0,13718 <ediv+0x48>
   13786:	01498713          	addi	a4,s3,20
   1378a:	0009d783          	lhu	a5,0(s3)
   1378e:	0989                	c.addi	s3,2
   13790:	0409                	c.addi	s0,2
   13792:	fef41f23          	sh	a5,-2(s0)
   13796:	fee99ae3          	bne	s3,a4,1378a <ediv+0xba>
   1379a:	b7d9                	c.j	13760 <ediv+0x90>
   1379c:	06fa8663          	beq	s5,a5,13808 <ediv+0x138>
   137a0:	854a                	c.mv	a0,s2
   137a2:	080c                	c.addi4spn	a1,sp,16
   137a4:	b72ff0ef          	jal	ra,12b16 <emovi>
   137a8:	180c                	c.addi4spn	a1,sp,48
   137aa:	854e                	c.mv	a0,s3
   137ac:	b6aff0ef          	jal	ra,12b16 <emovi>
   137b0:	03215b83          	lhu	s7,50(sp)
   137b4:	01215903          	lhu	s2,18(sp)
   137b8:	080b9a63          	bne	s7,zero,1384c <ediv+0x17c>
   137bc:	185c                	c.addi4spn	a5,sp,52
   137be:	04810d93          	addi	s11,sp,72
   137c2:	28fd8363          	beq	s11,a5,13a48 <ediv+0x378>
   137c6:	0007d703          	lhu	a4,0(a5) # 8000 <main-0x80b0>
   137ca:	0789                	c.addi	a5,2
   137cc:	db7d                	c.beqz	a4,137c2 <ediv+0xf2>
   137ce:	1808                	c.addi4spn	a0,sp,48
   137d0:	e58ff0ef          	jal	ra,12e28 <enormlz>
   137d4:	40a007b3          	sub	a5,zero,a0
   137d8:	01215603          	lhu	a2,18(sp)
   137dc:	e43e                	c.sdsp	a5,8(sp)
   137de:	a88d                	c.j	13850 <ediv+0x180>
   137e0:	3a8a0593          	addi	a1,s4,936
   137e4:	854e                	c.mv	a0,s3
   137e6:	be6ff0ef          	jal	ra,12bcc <ecmp>
   137ea:	fd15                	c.bnez	a0,13726 <ediv+0x56>
   137ec:	01040713          	addi	a4,s0,16
   137f0:	87a2                	c.mv	a5,s0
   137f2:	0789                	c.addi	a5,2
   137f4:	fe079f23          	sh	zero,-2(a5)
   137f8:	fee79de3          	bne	a5,a4,137f2 <ediv+0x122>
   137fc:	7fffc7b7          	lui	a5,0x7fffc
   13800:	c81c                	c.sw	a5,16(s0)
   13802:	bfb9                	c.j	13760 <ediv+0x90>
   13804:	f94a9ee3          	bne	s5,s4,137a0 <ediv+0xd0>
   13808:	854e                	c.mv	a0,s3
   1380a:	c8aff0ef          	jal	ra,12c94 <eisinf.part.0>
   1380e:	d949                	c.beqz	a0,137a0 <ediv+0xd0>
   13810:	854a                	c.mv	a0,s2
   13812:	adaff0ef          	jal	ra,12aec <eisneg>
   13816:	84aa                	c.mv	s1,a0
   13818:	854e                	c.mv	a0,s3
   1381a:	ad2ff0ef          	jal	ra,12aec <eisneg>
   1381e:	40a487b3          	sub	a5,s1,a0
   13822:	00f037b3          	sltu	a5,zero,a5
   13826:	07be                	c.slli	a5,0xf
   13828:	00f41923          	sh	a5,18(s0)
   1382c:	01240713          	addi	a4,s0,18
   13830:	87a2                	c.mv	a5,s0
   13832:	0789                	c.addi	a5,2
   13834:	fe079f23          	sh	zero,-2(a5) # 7fffbffe <__BSS_END__+0x7ffdddf6>
   13838:	fee79de3          	bne	a5,a4,13832 <ediv+0x162>
   1383c:	01245783          	lhu	a5,18(s0)
   13840:	6721                	c.lui	a4,0x8
   13842:	177d                	c.addi	a4,-1
   13844:	8fd9                	c.or	a5,a4
   13846:	00f41923          	sh	a5,18(s0)
   1384a:	bf19                	c.j	13760 <ediv+0x90>
   1384c:	e45e                	c.sdsp	s7,8(sp)
   1384e:	864a                	c.mv	a2,s2
   13850:	e04a                	c.sdsp	s2,0(sp)
   13852:	085c                	c.addi4spn	a5,sp,20
   13854:	1034                	c.addi4spn	a3,sp,40
   13856:	ee09                	c.bnez	a2,13870 <ediv+0x1a0>
   13858:	20f68063          	beq	a3,a5,13a58 <ediv+0x388>
   1385c:	0007d703          	lhu	a4,0(a5)
   13860:	0789                	c.addi	a5,2
   13862:	db7d                	c.beqz	a4,13858 <ediv+0x188>
   13864:	0808                	c.addi4spn	a0,sp,16
   13866:	dc2ff0ef          	jal	ra,12e28 <enormlz>
   1386a:	40a907b3          	sub	a5,s2,a0
   1386e:	e03e                	c.sdsp	a5,0(sp)
   13870:	5742                	c.lwsp	a4,48(sp)
   13872:	03848d13          	addi	s10,s1,56
   13876:	87ea                	c.mv	a5,s10
   13878:	d8d8                	c.sw	a4,52(s1)
   1387a:	04e48913          	addi	s2,s1,78
   1387e:	0789                	c.addi	a5,2
   13880:	fe079f23          	sh	zero,-2(a5)
   13884:	fef91de3          	bne	s2,a5,1387e <ediv+0x1ae>
   13888:	1808                	c.addi4spn	a0,sp,48
   1388a:	900ff0ef          	jal	ra,1298a <eshdn1>
   1388e:	01615c03          	lhu	s8,22(sp)
   13892:	6a41                	c.lui	s4,0x10
   13894:	04810d93          	addi	s11,sp,72
   13898:	010c1a93          	slli	s5,s8,0x10
   1389c:	418a8ab3          	sub	s5,s5,s8
   138a0:	03210b13          	addi	s6,sp,50
   138a4:	1a7d                	c.addi	s4,-1
   138a6:	06a10c93          	addi	s9,sp,106
   138aa:	05210993          	addi	s3,sp,82
   138ae:	03415783          	lhu	a5,52(sp)
   138b2:	03615703          	lhu	a4,54(sp)
   138b6:	8bd2                	c.mv	s7,s4
   138b8:	07c2                	c.slli	a5,0x10
   138ba:	97ba                	c.add	a5,a4
   138bc:	00fae863          	bltu	s5,a5,138cc <ediv+0x1fc>
   138c0:	0387d7b3          	divu	a5,a5,s8
   138c4:	03079b93          	slli	s7,a5,0x30
   138c8:	030bdb93          	srli	s7,s7,0x30
   138cc:	0890                	c.addi4spn	a2,sp,80
   138ce:	080c                	c.addi4spn	a1,sp,16
   138d0:	855e                	c.mv	a0,s7
   138d2:	95eff0ef          	jal	ra,12a30 <m16m>
   138d6:	1858                	c.addi4spn	a4,sp,52
   138d8:	08dc                	c.addi4spn	a5,sp,84
   138da:	0007d583          	lhu	a1,0(a5)
   138de:	00075603          	lhu	a2,0(a4) # 8000 <main-0x80b0>
   138e2:	0789                	c.addi	a5,2
   138e4:	0709                	c.addi	a4,2
   138e6:	0cc59c63          	bne	a1,a2,139be <ediv+0x2ee>
   138ea:	ff9798e3          	bne	a5,s9,138da <ediv+0x20a>
   138ee:	4781                	c.li	a5,0
   138f0:	10ac                	c.addi4spn	a1,sp,104
   138f2:	866e                	c.mv	a2,s11
   138f4:	00065703          	lhu	a4,0(a2)
   138f8:	0005d803          	lhu	a6,0(a1)
   138fc:	1679                	c.addi	a2,-2
   138fe:	8f1d                	c.sub	a4,a5
   13900:	41070733          	sub	a4,a4,a6
   13904:	01075793          	srli	a5,a4,0x10
   13908:	00e61123          	sh	a4,2(a2)
   1390c:	8b85                	c.andi	a5,1
   1390e:	15f9                	c.addi	a1,-2
   13910:	ff6612e3          	bne	a2,s6,138f4 <ediv+0x224>
   13914:	017d1023          	sh	s7,0(s10)
   13918:	185c                	c.addi4spn	a5,sp,52
   1391a:	0027d703          	lhu	a4,2(a5)
   1391e:	0789                	c.addi	a5,2
   13920:	fee79f23          	sh	a4,-2(a5)
   13924:	ffb79be3          	bne	a5,s11,1391a <ediv+0x24a>
   13928:	04011423          	sh	zero,72(sp)
   1392c:	0d09                	c.addi	s10,2
   1392e:	f9a910e3          	bne	s2,s10,138ae <ediv+0x1de>
   13932:	4581                	c.li	a1,0
   13934:	185c                	c.addi4spn	a5,sp,52
   13936:	04a10693          	addi	a3,sp,74
   1393a:	0007d703          	lhu	a4,0(a5)
   1393e:	0789                	c.addi	a5,2
   13940:	8dd9                	c.or	a1,a4
   13942:	fed79ce3          	bne	a5,a3,1393a <ediv+0x26a>
   13946:	0105979b          	slliw	a5,a1,0x10
   1394a:	4107d79b          	sraiw	a5,a5,0x10
   1394e:	c391                	c.beqz	a5,13952 <ediv+0x282>
   13950:	4585                	c.li	a1,1
   13952:	15c2                	c.slli	a1,0x30
   13954:	91c1                	c.srli	a1,0x30
   13956:	03448713          	addi	a4,s1,52
   1395a:	181c                	c.addi4spn	a5,sp,48
   1395c:	00075603          	lhu	a2,0(a4)
   13960:	0789                	c.addi	a5,2
   13962:	0709                	c.addi	a4,2
   13964:	fec79f23          	sh	a2,-2(a5)
   13968:	fef69ae3          	bne	a3,a5,1395c <ediv+0x28c>
   1396c:	67a2                	c.ldsp	a5,8(sp)
   1396e:	6702                	c.ldsp	a4,0(sp)
   13970:	6691                	c.lui	a3,0x4
   13972:	16fd                	c.addi	a3,-1
   13974:	40e78bb3          	sub	s7,a5,a4
   13978:	1808                	c.addi4spn	a0,sp,48
   1397a:	87a6                	c.mv	a5,s1
   1397c:	04000713          	addi	a4,zero,64
   13980:	96de                	c.add	a3,s7
   13982:	4601                	c.li	a2,0
   13984:	dc4ff0ef          	jal	ra,12f48 <emdnorm>
   13988:	03015703          	lhu	a4,48(sp)
   1398c:	01015783          	lhu	a5,16(sp)
   13990:	85a2                	c.mv	a1,s0
   13992:	1808                	c.addi4spn	a0,sp,48
   13994:	8f99                	c.sub	a5,a4
   13996:	00f037b3          	sltu	a5,zero,a5
   1399a:	40f007bb          	subw	a5,zero,a5
   1399e:	02f11823          	sh	a5,48(sp)
   139a2:	9a1ff0ef          	jal	ra,13342 <emovo.isra.0>
   139a6:	bb6d                	c.j	13760 <ediv+0x90>
   139a8:	01490713          	addi	a4,s2,20
   139ac:	00095783          	lhu	a5,0(s2)
   139b0:	0909                	c.addi	s2,2
   139b2:	0409                	c.addi	s0,2
   139b4:	fef41f23          	sh	a5,-2(s0)
   139b8:	fee91ae3          	bne	s2,a4,139ac <ediv+0x2dc>
   139bc:	b355                	c.j	13760 <ediv+0x90>
   139be:	f2b678e3          	bgeu	a2,a1,138ee <ediv+0x21e>
   139c2:	fffb879b          	addiw	a5,s7,-1
   139c6:	03079893          	slli	a7,a5,0x30
   139ca:	0308d893          	srli	a7,a7,0x30
   139ce:	4781                	c.li	a5,0
   139d0:	102c                	c.addi4spn	a1,sp,40
   139d2:	10b0                	c.addi4spn	a2,sp,104
   139d4:	00065703          	lhu	a4,0(a2)
   139d8:	0005d803          	lhu	a6,0(a1)
   139dc:	1679                	c.addi	a2,-2
   139de:	8f1d                	c.sub	a4,a5
   139e0:	41070733          	sub	a4,a4,a6
   139e4:	01075793          	srli	a5,a4,0x10
   139e8:	00e61123          	sh	a4,2(a2)
   139ec:	8b85                	c.andi	a5,1
   139ee:	15f9                	c.addi	a1,-2
   139f0:	ff3612e3          	bne	a2,s3,139d4 <ediv+0x304>
   139f4:	1858                	c.addi4spn	a4,sp,52
   139f6:	08dc                	c.addi4spn	a5,sp,84
   139f8:	0007d583          	lhu	a1,0(a5)
   139fc:	00075603          	lhu	a2,0(a4)
   13a00:	0789                	c.addi	a5,2
   13a02:	0709                	c.addi	a4,2
   13a04:	00c59663          	bne	a1,a2,13a10 <ediv+0x340>
   13a08:	ff9798e3          	bne	a5,s9,139f8 <ediv+0x328>
   13a0c:	8bc6                	c.mv	s7,a7
   13a0e:	b5c5                	c.j	138ee <ediv+0x21e>
   13a10:	feb67ee3          	bgeu	a2,a1,13a0c <ediv+0x33c>
   13a14:	ffeb879b          	addiw	a5,s7,-2
   13a18:	03079b93          	slli	s7,a5,0x30
   13a1c:	030bdb93          	srli	s7,s7,0x30
   13a20:	4601                	c.li	a2,0
   13a22:	102c                	c.addi4spn	a1,sp,40
   13a24:	10b8                	c.addi4spn	a4,sp,104
   13a26:	00075783          	lhu	a5,0(a4)
   13a2a:	0005d803          	lhu	a6,0(a1)
   13a2e:	1779                	c.addi	a4,-2
   13a30:	8f91                	c.sub	a5,a2
   13a32:	410787b3          	sub	a5,a5,a6
   13a36:	0107d613          	srli	a2,a5,0x10
   13a3a:	00f71123          	sh	a5,2(a4)
   13a3e:	8a05                	c.andi	a2,1
   13a40:	15f9                	c.addi	a1,-2
   13a42:	ff3712e3          	bne	a4,s3,13a26 <ediv+0x356>
